ARM GAS  C:\Users\fabis\AppData\Local\Temp\cc4H14Ix.s 			page 1


   1              		.syntax unified
   2              		.cpu cortex-m3
   3              		.fpu softvfp
   4              		.eabi_attribute 20, 1
   5              		.eabi_attribute 21, 1
   6              		.eabi_attribute 23, 3
   7              		.eabi_attribute 24, 1
   8              		.eabi_attribute 25, 1
   9              		.eabi_attribute 26, 1
  10              		.eabi_attribute 30, 6
  11              		.eabi_attribute 34, 1
  12              		.eabi_attribute 18, 4
  13              		.thumb
  14              		.syntax unified
  15              		.file	"Columns.c"
  16              		.text
  17              	.Ltext0:
  18              		.cfi_sections	.debug_frame
  19              		.section	.text.Columns_Write,"ax",%progbits
  20              		.align	2
  21              		.global	Columns_Write
  22              		.thumb
  23              		.thumb_func
  24              		.type	Columns_Write, %function
  25              	Columns_Write:
  26              	.LFB0:
  27              		.file 1 "Generated_Source\\PSoC5\\Columns.c"
   1:Generated_Source\PSoC5/Columns.c **** /*******************************************************************************
   2:Generated_Source\PSoC5/Columns.c **** * File Name: Columns.c  
   3:Generated_Source\PSoC5/Columns.c **** * Version 2.20
   4:Generated_Source\PSoC5/Columns.c **** *
   5:Generated_Source\PSoC5/Columns.c **** * Description:
   6:Generated_Source\PSoC5/Columns.c **** *  This file contains API to enable firmware control of a Pins component.
   7:Generated_Source\PSoC5/Columns.c **** *
   8:Generated_Source\PSoC5/Columns.c **** * Note:
   9:Generated_Source\PSoC5/Columns.c **** *
  10:Generated_Source\PSoC5/Columns.c **** ********************************************************************************
  11:Generated_Source\PSoC5/Columns.c **** * Copyright 2008-2015, Cypress Semiconductor Corporation.  All rights reserved.
  12:Generated_Source\PSoC5/Columns.c **** * You may use this file only in accordance with the license, terms, conditions, 
  13:Generated_Source\PSoC5/Columns.c **** * disclaimers, and limitations in the end user license agreement accompanying 
  14:Generated_Source\PSoC5/Columns.c **** * the software package with which this file was provided.
  15:Generated_Source\PSoC5/Columns.c **** *******************************************************************************/
  16:Generated_Source\PSoC5/Columns.c **** 
  17:Generated_Source\PSoC5/Columns.c **** #include "cytypes.h"
  18:Generated_Source\PSoC5/Columns.c **** #include "Columns.h"
  19:Generated_Source\PSoC5/Columns.c **** 
  20:Generated_Source\PSoC5/Columns.c **** /* APIs are not generated for P15[7:6] on PSoC 5 */
  21:Generated_Source\PSoC5/Columns.c **** #if !(CY_PSOC5A &&\
  22:Generated_Source\PSoC5/Columns.c **** 	 Columns__PORT == 15 && ((Columns__MASK & 0xC0) != 0))
  23:Generated_Source\PSoC5/Columns.c **** 
  24:Generated_Source\PSoC5/Columns.c **** 
  25:Generated_Source\PSoC5/Columns.c **** /*******************************************************************************
  26:Generated_Source\PSoC5/Columns.c **** * Function Name: Columns_Write
  27:Generated_Source\PSoC5/Columns.c **** ****************************************************************************//**
  28:Generated_Source\PSoC5/Columns.c **** *
  29:Generated_Source\PSoC5/Columns.c **** * \brief Writes the value to the physical port (data output register), masking
  30:Generated_Source\PSoC5/Columns.c **** *  and shifting the bits appropriately. 
ARM GAS  C:\Users\fabis\AppData\Local\Temp\cc4H14Ix.s 			page 2


  31:Generated_Source\PSoC5/Columns.c **** *
  32:Generated_Source\PSoC5/Columns.c **** * The data output register controls the signal applied to the physical pin in 
  33:Generated_Source\PSoC5/Columns.c **** * conjunction with the drive mode parameter. This function avoids changing 
  34:Generated_Source\PSoC5/Columns.c **** * other bits in the port by using the appropriate method (read-modify-write or
  35:Generated_Source\PSoC5/Columns.c **** * bit banding).
  36:Generated_Source\PSoC5/Columns.c **** *
  37:Generated_Source\PSoC5/Columns.c **** * <b>Note</b> This function should not be used on a hardware digital output pin 
  38:Generated_Source\PSoC5/Columns.c **** * as it is driven by the hardware signal attached to it.
  39:Generated_Source\PSoC5/Columns.c **** *
  40:Generated_Source\PSoC5/Columns.c **** * \param value
  41:Generated_Source\PSoC5/Columns.c **** *  Value to write to the component instance.
  42:Generated_Source\PSoC5/Columns.c **** *
  43:Generated_Source\PSoC5/Columns.c **** * \return 
  44:Generated_Source\PSoC5/Columns.c **** *  None 
  45:Generated_Source\PSoC5/Columns.c **** *
  46:Generated_Source\PSoC5/Columns.c **** * \sideeffect
  47:Generated_Source\PSoC5/Columns.c **** *  If you use read-modify-write operations that are not atomic; the Interrupt 
  48:Generated_Source\PSoC5/Columns.c **** *  Service Routines (ISR) can cause corruption of this function. An ISR that 
  49:Generated_Source\PSoC5/Columns.c **** *  interrupts this function and performs writes to the Pins component data 
  50:Generated_Source\PSoC5/Columns.c **** *  register can cause corrupted port data. To avoid this issue, you should 
  51:Generated_Source\PSoC5/Columns.c **** *  either use the Per-Pin APIs (primary method) or disable interrupts around 
  52:Generated_Source\PSoC5/Columns.c **** *  this function.
  53:Generated_Source\PSoC5/Columns.c **** *
  54:Generated_Source\PSoC5/Columns.c **** * \funcusage
  55:Generated_Source\PSoC5/Columns.c **** *  \snippet Columns_SUT.c usage_Columns_Write
  56:Generated_Source\PSoC5/Columns.c **** *******************************************************************************/
  57:Generated_Source\PSoC5/Columns.c **** void Columns_Write(uint8 value)
  58:Generated_Source\PSoC5/Columns.c **** {
  28              		.loc 1 58 0
  29              		.cfi_startproc
  30              		@ args = 0, pretend = 0, frame = 16
  31              		@ frame_needed = 1, uses_anonymous_args = 0
  32              		@ link register save eliminated.
  33 0000 80B4     		push	{r7}
  34              		.cfi_def_cfa_offset 4
  35              		.cfi_offset 7, -4
  36 0002 85B0     		sub	sp, sp, #20
  37              		.cfi_def_cfa_offset 24
  38 0004 00AF     		add	r7, sp, #0
  39              		.cfi_def_cfa_register 7
  40 0006 0346     		mov	r3, r0
  41 0008 FB71     		strb	r3, [r7, #7]
  59:Generated_Source\PSoC5/Columns.c ****     uint8 staticBits = (Columns_DR & (uint8)(~Columns_MASK));
  42              		.loc 1 59 0
  43 000a 0B4B     		ldr	r3, .L2
  44 000c 1B78     		ldrb	r3, [r3]
  45 000e DBB2     		uxtb	r3, r3
  46 0010 23F03C03 		bic	r3, r3, #60
  47 0014 FB73     		strb	r3, [r7, #15]
  60:Generated_Source\PSoC5/Columns.c ****     Columns_DR = staticBits | ((uint8)(value << Columns_SHIFT) & Columns_MASK);
  48              		.loc 1 60 0
  49 0016 0849     		ldr	r1, .L2
  50 0018 FB79     		ldrb	r3, [r7, #7]
  51 001a 9B00     		lsls	r3, r3, #2
  52 001c DBB2     		uxtb	r3, r3
  53 001e 03F03C03 		and	r3, r3, #60
  54 0022 DAB2     		uxtb	r2, r3
ARM GAS  C:\Users\fabis\AppData\Local\Temp\cc4H14Ix.s 			page 3


  55 0024 FB7B     		ldrb	r3, [r7, #15]
  56 0026 1343     		orrs	r3, r3, r2
  57 0028 DBB2     		uxtb	r3, r3
  58 002a 0B70     		strb	r3, [r1]
  61:Generated_Source\PSoC5/Columns.c **** }
  59              		.loc 1 61 0
  60 002c 00BF     		nop
  61 002e 1437     		adds	r7, r7, #20
  62              		.cfi_def_cfa_offset 4
  63 0030 BD46     		mov	sp, r7
  64              		.cfi_def_cfa_register 13
  65              		@ sp needed
  66 0032 80BC     		pop	{r7}
  67              		.cfi_restore 7
  68              		.cfi_def_cfa_offset 0
  69 0034 7047     		bx	lr
  70              	.L3:
  71 0036 00BF     		.align	2
  72              	.L2:
  73 0038 10510040 		.word	1073762576
  74              		.cfi_endproc
  75              	.LFE0:
  76              		.size	Columns_Write, .-Columns_Write
  77              		.section	.text.Columns_SetDriveMode,"ax",%progbits
  78              		.align	2
  79              		.global	Columns_SetDriveMode
  80              		.thumb
  81              		.thumb_func
  82              		.type	Columns_SetDriveMode, %function
  83              	Columns_SetDriveMode:
  84              	.LFB1:
  62:Generated_Source\PSoC5/Columns.c **** 
  63:Generated_Source\PSoC5/Columns.c **** 
  64:Generated_Source\PSoC5/Columns.c **** /*******************************************************************************
  65:Generated_Source\PSoC5/Columns.c **** * Function Name: Columns_SetDriveMode
  66:Generated_Source\PSoC5/Columns.c **** ****************************************************************************//**
  67:Generated_Source\PSoC5/Columns.c **** *
  68:Generated_Source\PSoC5/Columns.c **** * \brief Sets the drive mode for each of the Pins component's pins.
  69:Generated_Source\PSoC5/Columns.c **** * 
  70:Generated_Source\PSoC5/Columns.c **** * <b>Note</b> This affects all pins in the Pins component instance. Use the
  71:Generated_Source\PSoC5/Columns.c **** * Per-Pin APIs if you wish to control individual pin's drive modes.
  72:Generated_Source\PSoC5/Columns.c **** *
  73:Generated_Source\PSoC5/Columns.c **** * \param mode
  74:Generated_Source\PSoC5/Columns.c **** *  Mode for the selected signals. Valid options are documented in 
  75:Generated_Source\PSoC5/Columns.c **** *  \ref driveMode.
  76:Generated_Source\PSoC5/Columns.c **** *
  77:Generated_Source\PSoC5/Columns.c **** * \return
  78:Generated_Source\PSoC5/Columns.c **** *  None
  79:Generated_Source\PSoC5/Columns.c **** *
  80:Generated_Source\PSoC5/Columns.c **** * \sideeffect
  81:Generated_Source\PSoC5/Columns.c **** *  If you use read-modify-write operations that are not atomic, the ISR can
  82:Generated_Source\PSoC5/Columns.c **** *  cause corruption of this function. An ISR that interrupts this function 
  83:Generated_Source\PSoC5/Columns.c **** *  and performs writes to the Pins component Drive Mode registers can cause 
  84:Generated_Source\PSoC5/Columns.c **** *  corrupted port data. To avoid this issue, you should either use the Per-Pin
  85:Generated_Source\PSoC5/Columns.c **** *  APIs (primary method) or disable interrupts around this function.
  86:Generated_Source\PSoC5/Columns.c **** *
  87:Generated_Source\PSoC5/Columns.c **** * \funcusage
ARM GAS  C:\Users\fabis\AppData\Local\Temp\cc4H14Ix.s 			page 4


  88:Generated_Source\PSoC5/Columns.c **** *  \snippet Columns_SUT.c usage_Columns_SetDriveMode
  89:Generated_Source\PSoC5/Columns.c **** *******************************************************************************/
  90:Generated_Source\PSoC5/Columns.c **** void Columns_SetDriveMode(uint8 mode)
  91:Generated_Source\PSoC5/Columns.c **** {
  85              		.loc 1 91 0
  86              		.cfi_startproc
  87              		@ args = 0, pretend = 0, frame = 8
  88              		@ frame_needed = 1, uses_anonymous_args = 0
  89              		@ link register save eliminated.
  90 0000 80B4     		push	{r7}
  91              		.cfi_def_cfa_offset 4
  92              		.cfi_offset 7, -4
  93 0002 83B0     		sub	sp, sp, #12
  94              		.cfi_def_cfa_offset 16
  95 0004 00AF     		add	r7, sp, #0
  96              		.cfi_def_cfa_register 7
  97 0006 0346     		mov	r3, r0
  98 0008 FB71     		strb	r3, [r7, #7]
  92:Generated_Source\PSoC5/Columns.c **** 	CyPins_SetPinDriveMode(Columns_0, mode);
  99              		.loc 1 92 0
 100 000a 2449     		ldr	r1, .L5
 101 000c 234B     		ldr	r3, .L5
 102 000e 1B78     		ldrb	r3, [r3]
 103 0010 DBB2     		uxtb	r3, r3
 104 0012 5BB2     		sxtb	r3, r3
 105 0014 23F00E03 		bic	r3, r3, #14
 106 0018 5AB2     		sxtb	r2, r3
 107 001a 97F90730 		ldrsb	r3, [r7, #7]
 108 001e 03F00E03 		and	r3, r3, #14
 109 0022 5BB2     		sxtb	r3, r3
 110 0024 1343     		orrs	r3, r3, r2
 111 0026 5BB2     		sxtb	r3, r3
 112 0028 DBB2     		uxtb	r3, r3
 113 002a 0B70     		strb	r3, [r1]
  93:Generated_Source\PSoC5/Columns.c **** 	CyPins_SetPinDriveMode(Columns_1, mode);
 114              		.loc 1 93 0
 115 002c 1C49     		ldr	r1, .L5+4
 116 002e 1C4B     		ldr	r3, .L5+4
 117 0030 1B78     		ldrb	r3, [r3]
 118 0032 DBB2     		uxtb	r3, r3
 119 0034 5BB2     		sxtb	r3, r3
 120 0036 23F00E03 		bic	r3, r3, #14
 121 003a 5AB2     		sxtb	r2, r3
 122 003c 97F90730 		ldrsb	r3, [r7, #7]
 123 0040 03F00E03 		and	r3, r3, #14
 124 0044 5BB2     		sxtb	r3, r3
 125 0046 1343     		orrs	r3, r3, r2
 126 0048 5BB2     		sxtb	r3, r3
 127 004a DBB2     		uxtb	r3, r3
 128 004c 0B70     		strb	r3, [r1]
  94:Generated_Source\PSoC5/Columns.c **** 	CyPins_SetPinDriveMode(Columns_2, mode);
 129              		.loc 1 94 0
 130 004e 1549     		ldr	r1, .L5+8
 131 0050 144B     		ldr	r3, .L5+8
 132 0052 1B78     		ldrb	r3, [r3]
 133 0054 DBB2     		uxtb	r3, r3
 134 0056 5BB2     		sxtb	r3, r3
ARM GAS  C:\Users\fabis\AppData\Local\Temp\cc4H14Ix.s 			page 5


 135 0058 23F00E03 		bic	r3, r3, #14
 136 005c 5AB2     		sxtb	r2, r3
 137 005e 97F90730 		ldrsb	r3, [r7, #7]
 138 0062 03F00E03 		and	r3, r3, #14
 139 0066 5BB2     		sxtb	r3, r3
 140 0068 1343     		orrs	r3, r3, r2
 141 006a 5BB2     		sxtb	r3, r3
 142 006c DBB2     		uxtb	r3, r3
 143 006e 0B70     		strb	r3, [r1]
  95:Generated_Source\PSoC5/Columns.c **** 	CyPins_SetPinDriveMode(Columns_3, mode);
 144              		.loc 1 95 0
 145 0070 0D49     		ldr	r1, .L5+12
 146 0072 0D4B     		ldr	r3, .L5+12
 147 0074 1B78     		ldrb	r3, [r3]
 148 0076 DBB2     		uxtb	r3, r3
 149 0078 5BB2     		sxtb	r3, r3
 150 007a 23F00E03 		bic	r3, r3, #14
 151 007e 5AB2     		sxtb	r2, r3
 152 0080 97F90730 		ldrsb	r3, [r7, #7]
 153 0084 03F00E03 		and	r3, r3, #14
 154 0088 5BB2     		sxtb	r3, r3
 155 008a 1343     		orrs	r3, r3, r2
 156 008c 5BB2     		sxtb	r3, r3
 157 008e DBB2     		uxtb	r3, r3
 158 0090 0B70     		strb	r3, [r1]
  96:Generated_Source\PSoC5/Columns.c **** }
 159              		.loc 1 96 0
 160 0092 00BF     		nop
 161 0094 0C37     		adds	r7, r7, #12
 162              		.cfi_def_cfa_offset 4
 163 0096 BD46     		mov	sp, r7
 164              		.cfi_def_cfa_register 13
 165              		@ sp needed
 166 0098 80BC     		pop	{r7}
 167              		.cfi_restore 7
 168              		.cfi_def_cfa_offset 0
 169 009a 7047     		bx	lr
 170              	.L6:
 171              		.align	2
 172              	.L5:
 173 009c 0A500040 		.word	1073762314
 174 00a0 0B500040 		.word	1073762315
 175 00a4 0C500040 		.word	1073762316
 176 00a8 0D500040 		.word	1073762317
 177              		.cfi_endproc
 178              	.LFE1:
 179              		.size	Columns_SetDriveMode, .-Columns_SetDriveMode
 180              		.section	.text.Columns_Read,"ax",%progbits
 181              		.align	2
 182              		.global	Columns_Read
 183              		.thumb
 184              		.thumb_func
 185              		.type	Columns_Read, %function
 186              	Columns_Read:
 187              	.LFB2:
  97:Generated_Source\PSoC5/Columns.c **** 
  98:Generated_Source\PSoC5/Columns.c **** 
ARM GAS  C:\Users\fabis\AppData\Local\Temp\cc4H14Ix.s 			page 6


  99:Generated_Source\PSoC5/Columns.c **** /*******************************************************************************
 100:Generated_Source\PSoC5/Columns.c **** * Function Name: Columns_Read
 101:Generated_Source\PSoC5/Columns.c **** ****************************************************************************//**
 102:Generated_Source\PSoC5/Columns.c **** *
 103:Generated_Source\PSoC5/Columns.c **** * \brief Reads the associated physical port (pin status register) and masks 
 104:Generated_Source\PSoC5/Columns.c **** *  the required bits according to the width and bit position of the component
 105:Generated_Source\PSoC5/Columns.c **** *  instance. 
 106:Generated_Source\PSoC5/Columns.c **** *
 107:Generated_Source\PSoC5/Columns.c **** * The pin's status register returns the current logic level present on the 
 108:Generated_Source\PSoC5/Columns.c **** * physical pin.
 109:Generated_Source\PSoC5/Columns.c **** *
 110:Generated_Source\PSoC5/Columns.c **** * \return 
 111:Generated_Source\PSoC5/Columns.c **** *  The current value for the pins in the component as a right justified number.
 112:Generated_Source\PSoC5/Columns.c **** *
 113:Generated_Source\PSoC5/Columns.c **** * \funcusage
 114:Generated_Source\PSoC5/Columns.c **** *  \snippet Columns_SUT.c usage_Columns_Read  
 115:Generated_Source\PSoC5/Columns.c **** *******************************************************************************/
 116:Generated_Source\PSoC5/Columns.c **** uint8 Columns_Read(void)
 117:Generated_Source\PSoC5/Columns.c **** {
 188              		.loc 1 117 0
 189              		.cfi_startproc
 190              		@ args = 0, pretend = 0, frame = 0
 191              		@ frame_needed = 1, uses_anonymous_args = 0
 192              		@ link register save eliminated.
 193 0000 80B4     		push	{r7}
 194              		.cfi_def_cfa_offset 4
 195              		.cfi_offset 7, -4
 196 0002 00AF     		add	r7, sp, #0
 197              		.cfi_def_cfa_register 7
 118:Generated_Source\PSoC5/Columns.c ****     return (Columns_PS & Columns_MASK) >> Columns_SHIFT;
 198              		.loc 1 118 0
 199 0004 054B     		ldr	r3, .L9
 200 0006 1B78     		ldrb	r3, [r3]
 201 0008 DBB2     		uxtb	r3, r3
 202 000a 03F03C03 		and	r3, r3, #60
 203 000e 9B08     		lsrs	r3, r3, #2
 204 0010 DBB2     		uxtb	r3, r3
 119:Generated_Source\PSoC5/Columns.c **** }
 205              		.loc 1 119 0
 206 0012 1846     		mov	r0, r3
 207 0014 BD46     		mov	sp, r7
 208              		.cfi_def_cfa_register 13
 209              		@ sp needed
 210 0016 80BC     		pop	{r7}
 211              		.cfi_restore 7
 212              		.cfi_def_cfa_offset 0
 213 0018 7047     		bx	lr
 214              	.L10:
 215 001a 00BF     		.align	2
 216              	.L9:
 217 001c 11510040 		.word	1073762577
 218              		.cfi_endproc
 219              	.LFE2:
 220              		.size	Columns_Read, .-Columns_Read
 221              		.section	.text.Columns_ReadDataReg,"ax",%progbits
 222              		.align	2
 223              		.global	Columns_ReadDataReg
ARM GAS  C:\Users\fabis\AppData\Local\Temp\cc4H14Ix.s 			page 7


 224              		.thumb
 225              		.thumb_func
 226              		.type	Columns_ReadDataReg, %function
 227              	Columns_ReadDataReg:
 228              	.LFB3:
 120:Generated_Source\PSoC5/Columns.c **** 
 121:Generated_Source\PSoC5/Columns.c **** 
 122:Generated_Source\PSoC5/Columns.c **** /*******************************************************************************
 123:Generated_Source\PSoC5/Columns.c **** * Function Name: Columns_ReadDataReg
 124:Generated_Source\PSoC5/Columns.c **** ****************************************************************************//**
 125:Generated_Source\PSoC5/Columns.c **** *
 126:Generated_Source\PSoC5/Columns.c **** * \brief Reads the associated physical port's data output register and masks 
 127:Generated_Source\PSoC5/Columns.c **** *  the correct bits according to the width and bit position of the component 
 128:Generated_Source\PSoC5/Columns.c **** *  instance. 
 129:Generated_Source\PSoC5/Columns.c **** *
 130:Generated_Source\PSoC5/Columns.c **** * The data output register controls the signal applied to the physical pin in 
 131:Generated_Source\PSoC5/Columns.c **** * conjunction with the drive mode parameter. This is not the same as the 
 132:Generated_Source\PSoC5/Columns.c **** * preferred Columns_Read() API because the 
 133:Generated_Source\PSoC5/Columns.c **** * Columns_ReadDataReg() reads the data register instead of the status 
 134:Generated_Source\PSoC5/Columns.c **** * register. For output pins this is a useful function to determine the value 
 135:Generated_Source\PSoC5/Columns.c **** * just written to the pin.
 136:Generated_Source\PSoC5/Columns.c **** *
 137:Generated_Source\PSoC5/Columns.c **** * \return 
 138:Generated_Source\PSoC5/Columns.c **** *  The current value of the data register masked and shifted into a right 
 139:Generated_Source\PSoC5/Columns.c **** *  justified number for the component instance.
 140:Generated_Source\PSoC5/Columns.c **** *
 141:Generated_Source\PSoC5/Columns.c **** * \funcusage
 142:Generated_Source\PSoC5/Columns.c **** *  \snippet Columns_SUT.c usage_Columns_ReadDataReg 
 143:Generated_Source\PSoC5/Columns.c **** *******************************************************************************/
 144:Generated_Source\PSoC5/Columns.c **** uint8 Columns_ReadDataReg(void)
 145:Generated_Source\PSoC5/Columns.c **** {
 229              		.loc 1 145 0
 230              		.cfi_startproc
 231              		@ args = 0, pretend = 0, frame = 0
 232              		@ frame_needed = 1, uses_anonymous_args = 0
 233              		@ link register save eliminated.
 234 0000 80B4     		push	{r7}
 235              		.cfi_def_cfa_offset 4
 236              		.cfi_offset 7, -4
 237 0002 00AF     		add	r7, sp, #0
 238              		.cfi_def_cfa_register 7
 146:Generated_Source\PSoC5/Columns.c ****     return (Columns_DR & Columns_MASK) >> Columns_SHIFT;
 239              		.loc 1 146 0
 240 0004 054B     		ldr	r3, .L13
 241 0006 1B78     		ldrb	r3, [r3]
 242 0008 DBB2     		uxtb	r3, r3
 243 000a 03F03C03 		and	r3, r3, #60
 244 000e 9B08     		lsrs	r3, r3, #2
 245 0010 DBB2     		uxtb	r3, r3
 147:Generated_Source\PSoC5/Columns.c **** }
 246              		.loc 1 147 0
 247 0012 1846     		mov	r0, r3
 248 0014 BD46     		mov	sp, r7
 249              		.cfi_def_cfa_register 13
 250              		@ sp needed
 251 0016 80BC     		pop	{r7}
 252              		.cfi_restore 7
ARM GAS  C:\Users\fabis\AppData\Local\Temp\cc4H14Ix.s 			page 8


 253              		.cfi_def_cfa_offset 0
 254 0018 7047     		bx	lr
 255              	.L14:
 256 001a 00BF     		.align	2
 257              	.L13:
 258 001c 10510040 		.word	1073762576
 259              		.cfi_endproc
 260              	.LFE3:
 261              		.size	Columns_ReadDataReg, .-Columns_ReadDataReg
 262              		.section	.text.Columns_SetInterruptMode,"ax",%progbits
 263              		.align	2
 264              		.global	Columns_SetInterruptMode
 265              		.thumb
 266              		.thumb_func
 267              		.type	Columns_SetInterruptMode, %function
 268              	Columns_SetInterruptMode:
 269              	.LFB4:
 148:Generated_Source\PSoC5/Columns.c **** 
 149:Generated_Source\PSoC5/Columns.c **** 
 150:Generated_Source\PSoC5/Columns.c **** /* If interrupt is connected for this Pins component */ 
 151:Generated_Source\PSoC5/Columns.c **** #if defined(Columns_INTSTAT) 
 152:Generated_Source\PSoC5/Columns.c **** 
 153:Generated_Source\PSoC5/Columns.c ****     /*******************************************************************************
 154:Generated_Source\PSoC5/Columns.c ****     * Function Name: Columns_SetInterruptMode
 155:Generated_Source\PSoC5/Columns.c ****     ****************************************************************************//**
 156:Generated_Source\PSoC5/Columns.c ****     *
 157:Generated_Source\PSoC5/Columns.c ****     * \brief Configures the interrupt mode for each of the Pins component's
 158:Generated_Source\PSoC5/Columns.c ****     *  pins. Alternatively you may set the interrupt mode for all the pins
 159:Generated_Source\PSoC5/Columns.c ****     *  specified in the Pins component.
 160:Generated_Source\PSoC5/Columns.c ****     *
 161:Generated_Source\PSoC5/Columns.c ****     *  <b>Note</b> The interrupt is port-wide and therefore any enabled pin
 162:Generated_Source\PSoC5/Columns.c ****     *  interrupt may trigger it.
 163:Generated_Source\PSoC5/Columns.c ****     *
 164:Generated_Source\PSoC5/Columns.c ****     * \param position
 165:Generated_Source\PSoC5/Columns.c ****     *  The pin position as listed in the Pins component. You may OR these to be 
 166:Generated_Source\PSoC5/Columns.c ****     *  able to configure the interrupt mode of multiple pins within a Pins 
 167:Generated_Source\PSoC5/Columns.c ****     *  component. Or you may use Columns_INTR_ALL to configure the
 168:Generated_Source\PSoC5/Columns.c ****     *  interrupt mode of all the pins in the Pins component.       
 169:Generated_Source\PSoC5/Columns.c ****     *  - Columns_0_INTR       (First pin in the list)
 170:Generated_Source\PSoC5/Columns.c ****     *  - Columns_1_INTR       (Second pin in the list)
 171:Generated_Source\PSoC5/Columns.c ****     *  - ...
 172:Generated_Source\PSoC5/Columns.c ****     *  - Columns_INTR_ALL     (All pins in Pins component)
 173:Generated_Source\PSoC5/Columns.c ****     *
 174:Generated_Source\PSoC5/Columns.c ****     * \param mode
 175:Generated_Source\PSoC5/Columns.c ****     *  Interrupt mode for the selected pins. Valid options are documented in
 176:Generated_Source\PSoC5/Columns.c ****     *  \ref intrMode.
 177:Generated_Source\PSoC5/Columns.c ****     *
 178:Generated_Source\PSoC5/Columns.c ****     * \return 
 179:Generated_Source\PSoC5/Columns.c ****     *  None
 180:Generated_Source\PSoC5/Columns.c ****     *  
 181:Generated_Source\PSoC5/Columns.c ****     * \sideeffect
 182:Generated_Source\PSoC5/Columns.c ****     *  It is recommended that the interrupt be disabled before calling this 
 183:Generated_Source\PSoC5/Columns.c ****     *  function to avoid unintended interrupt requests. Note that the interrupt
 184:Generated_Source\PSoC5/Columns.c ****     *  type is port wide, and therefore will trigger for any enabled pin on the 
 185:Generated_Source\PSoC5/Columns.c ****     *  port.
 186:Generated_Source\PSoC5/Columns.c ****     *
 187:Generated_Source\PSoC5/Columns.c ****     * \funcusage
ARM GAS  C:\Users\fabis\AppData\Local\Temp\cc4H14Ix.s 			page 9


 188:Generated_Source\PSoC5/Columns.c ****     *  \snippet Columns_SUT.c usage_Columns_SetInterruptMode
 189:Generated_Source\PSoC5/Columns.c ****     *******************************************************************************/
 190:Generated_Source\PSoC5/Columns.c ****     void Columns_SetInterruptMode(uint16 position, uint16 mode)
 191:Generated_Source\PSoC5/Columns.c ****     {
 270              		.loc 1 191 0
 271              		.cfi_startproc
 272              		@ args = 0, pretend = 0, frame = 8
 273              		@ frame_needed = 1, uses_anonymous_args = 0
 274              		@ link register save eliminated.
 275 0000 80B4     		push	{r7}
 276              		.cfi_def_cfa_offset 4
 277              		.cfi_offset 7, -4
 278 0002 83B0     		sub	sp, sp, #12
 279              		.cfi_def_cfa_offset 16
 280 0004 00AF     		add	r7, sp, #0
 281              		.cfi_def_cfa_register 7
 282 0006 0346     		mov	r3, r0
 283 0008 0A46     		mov	r2, r1
 284 000a FB80     		strh	r3, [r7, #6]	@ movhi
 285 000c 1346     		mov	r3, r2	@ movhi
 286 000e BB80     		strh	r3, [r7, #4]	@ movhi
 192:Generated_Source\PSoC5/Columns.c **** 		if((position & Columns_0_INTR) != 0u) 
 287              		.loc 1 192 0
 288 0010 FB88     		ldrh	r3, [r7, #6]
 289 0012 03F00403 		and	r3, r3, #4
 290 0016 002B     		cmp	r3, #0
 291 0018 03D0     		beq	.L16
 193:Generated_Source\PSoC5/Columns.c **** 		{ 
 194:Generated_Source\PSoC5/Columns.c **** 			 Columns_0_INTTYPE_REG = (uint8)mode; 
 292              		.loc 1 194 0
 293 001a 124B     		ldr	r3, .L21
 294 001c BA88     		ldrh	r2, [r7, #4]	@ movhi
 295 001e D2B2     		uxtb	r2, r2
 296 0020 1A70     		strb	r2, [r3]
 297              	.L16:
 195:Generated_Source\PSoC5/Columns.c **** 		} 
 196:Generated_Source\PSoC5/Columns.c **** 		if((position & Columns_1_INTR) != 0u) 
 298              		.loc 1 196 0
 299 0022 FB88     		ldrh	r3, [r7, #6]
 300 0024 03F00803 		and	r3, r3, #8
 301 0028 002B     		cmp	r3, #0
 302 002a 03D0     		beq	.L17
 197:Generated_Source\PSoC5/Columns.c **** 		{ 
 198:Generated_Source\PSoC5/Columns.c **** 			 Columns_1_INTTYPE_REG = (uint8)mode; 
 303              		.loc 1 198 0
 304 002c 0E4B     		ldr	r3, .L21+4
 305 002e BA88     		ldrh	r2, [r7, #4]	@ movhi
 306 0030 D2B2     		uxtb	r2, r2
 307 0032 1A70     		strb	r2, [r3]
 308              	.L17:
 199:Generated_Source\PSoC5/Columns.c **** 		} 
 200:Generated_Source\PSoC5/Columns.c **** 		if((position & Columns_2_INTR) != 0u) 
 309              		.loc 1 200 0
 310 0034 FB88     		ldrh	r3, [r7, #6]
 311 0036 03F01003 		and	r3, r3, #16
 312 003a 002B     		cmp	r3, #0
 313 003c 03D0     		beq	.L18
ARM GAS  C:\Users\fabis\AppData\Local\Temp\cc4H14Ix.s 			page 10


 201:Generated_Source\PSoC5/Columns.c **** 		{ 
 202:Generated_Source\PSoC5/Columns.c **** 			 Columns_2_INTTYPE_REG = (uint8)mode; 
 314              		.loc 1 202 0
 315 003e 0B4B     		ldr	r3, .L21+8
 316 0040 BA88     		ldrh	r2, [r7, #4]	@ movhi
 317 0042 D2B2     		uxtb	r2, r2
 318 0044 1A70     		strb	r2, [r3]
 319              	.L18:
 203:Generated_Source\PSoC5/Columns.c **** 		} 
 204:Generated_Source\PSoC5/Columns.c **** 		if((position & Columns_3_INTR) != 0u) 
 320              		.loc 1 204 0
 321 0046 FB88     		ldrh	r3, [r7, #6]
 322 0048 03F02003 		and	r3, r3, #32
 323 004c 002B     		cmp	r3, #0
 324 004e 03D0     		beq	.L20
 205:Generated_Source\PSoC5/Columns.c **** 		{ 
 206:Generated_Source\PSoC5/Columns.c **** 			 Columns_3_INTTYPE_REG = (uint8)mode; 
 325              		.loc 1 206 0
 326 0050 074B     		ldr	r3, .L21+12
 327 0052 BA88     		ldrh	r2, [r7, #4]	@ movhi
 328 0054 D2B2     		uxtb	r2, r2
 329 0056 1A70     		strb	r2, [r3]
 330              	.L20:
 207:Generated_Source\PSoC5/Columns.c **** 		}
 208:Generated_Source\PSoC5/Columns.c ****     }
 331              		.loc 1 208 0
 332 0058 00BF     		nop
 333 005a 0C37     		adds	r7, r7, #12
 334              		.cfi_def_cfa_offset 4
 335 005c BD46     		mov	sp, r7
 336              		.cfi_def_cfa_register 13
 337              		@ sp needed
 338 005e 80BC     		pop	{r7}
 339              		.cfi_restore 7
 340              		.cfi_def_cfa_offset 0
 341 0060 7047     		bx	lr
 342              	.L22:
 343 0062 00BF     		.align	2
 344              	.L21:
 345 0064 0A450040 		.word	1073759498
 346 0068 0B450040 		.word	1073759499
 347 006c 0C450040 		.word	1073759500
 348 0070 0D450040 		.word	1073759501
 349              		.cfi_endproc
 350              	.LFE4:
 351              		.size	Columns_SetInterruptMode, .-Columns_SetInterruptMode
 352              		.section	.text.Columns_ClearInterrupt,"ax",%progbits
 353              		.align	2
 354              		.global	Columns_ClearInterrupt
 355              		.thumb
 356              		.thumb_func
 357              		.type	Columns_ClearInterrupt, %function
 358              	Columns_ClearInterrupt:
 359              	.LFB5:
 209:Generated_Source\PSoC5/Columns.c ****     
 210:Generated_Source\PSoC5/Columns.c ****     
 211:Generated_Source\PSoC5/Columns.c ****     /*******************************************************************************
ARM GAS  C:\Users\fabis\AppData\Local\Temp\cc4H14Ix.s 			page 11


 212:Generated_Source\PSoC5/Columns.c ****     * Function Name: Columns_ClearInterrupt
 213:Generated_Source\PSoC5/Columns.c ****     ****************************************************************************//**
 214:Generated_Source\PSoC5/Columns.c ****     *
 215:Generated_Source\PSoC5/Columns.c ****     * \brief Clears any active interrupts attached with the component and returns 
 216:Generated_Source\PSoC5/Columns.c ****     *  the value of the interrupt status register allowing determination of which
 217:Generated_Source\PSoC5/Columns.c ****     *  pins generated an interrupt event.
 218:Generated_Source\PSoC5/Columns.c ****     *
 219:Generated_Source\PSoC5/Columns.c ****     * \return 
 220:Generated_Source\PSoC5/Columns.c ****     *  The right-shifted current value of the interrupt status register. Each pin 
 221:Generated_Source\PSoC5/Columns.c ****     *  has one bit set if it generated an interrupt event. For example, bit 0 is 
 222:Generated_Source\PSoC5/Columns.c ****     *  for pin 0 and bit 1 is for pin 1 of the Pins component.
 223:Generated_Source\PSoC5/Columns.c ****     *  
 224:Generated_Source\PSoC5/Columns.c ****     * \sideeffect
 225:Generated_Source\PSoC5/Columns.c ****     *  Clears all bits of the physical port's interrupt status register, not just
 226:Generated_Source\PSoC5/Columns.c ****     *  those associated with the Pins component.
 227:Generated_Source\PSoC5/Columns.c ****     *
 228:Generated_Source\PSoC5/Columns.c ****     * \funcusage
 229:Generated_Source\PSoC5/Columns.c ****     *  \snippet Columns_SUT.c usage_Columns_ClearInterrupt
 230:Generated_Source\PSoC5/Columns.c ****     *******************************************************************************/
 231:Generated_Source\PSoC5/Columns.c ****     uint8 Columns_ClearInterrupt(void)
 232:Generated_Source\PSoC5/Columns.c ****     {
 360              		.loc 1 232 0
 361              		.cfi_startproc
 362              		@ args = 0, pretend = 0, frame = 0
 363              		@ frame_needed = 1, uses_anonymous_args = 0
 364              		@ link register save eliminated.
 365 0000 80B4     		push	{r7}
 366              		.cfi_def_cfa_offset 4
 367              		.cfi_offset 7, -4
 368 0002 00AF     		add	r7, sp, #0
 369              		.cfi_def_cfa_register 7
 233:Generated_Source\PSoC5/Columns.c ****         return (Columns_INTSTAT & Columns_MASK) >> Columns_SHIFT;
 370              		.loc 1 233 0
 371 0004 054B     		ldr	r3, .L25
 372 0006 1B78     		ldrb	r3, [r3]
 373 0008 DBB2     		uxtb	r3, r3
 374 000a 03F03C03 		and	r3, r3, #60
 375 000e 9B08     		lsrs	r3, r3, #2
 376 0010 DBB2     		uxtb	r3, r3
 234:Generated_Source\PSoC5/Columns.c ****     }
 377              		.loc 1 234 0
 378 0012 1846     		mov	r0, r3
 379 0014 BD46     		mov	sp, r7
 380              		.cfi_def_cfa_register 13
 381              		@ sp needed
 382 0016 80BC     		pop	{r7}
 383              		.cfi_restore 7
 384              		.cfi_def_cfa_offset 0
 385 0018 7047     		bx	lr
 386              	.L26:
 387 001a 00BF     		.align	2
 388              	.L25:
 389 001c 81450040 		.word	1073759617
 390              		.cfi_endproc
 391              	.LFE5:
 392              		.size	Columns_ClearInterrupt, .-Columns_ClearInterrupt
 393              		.text
ARM GAS  C:\Users\fabis\AppData\Local\Temp\cc4H14Ix.s 			page 12


 394              	.Letext0:
 395              		.file 2 "Generated_Source\\PSoC5\\cytypes.h"