ARM GAS  C:\Users\LUISAL~1\AppData\Local\Temp\ccQz8dkj.s 			page 1


   1              		.syntax unified
   2              		.cpu cortex-m3
   3              		.fpu softvfp
   4              		.eabi_attribute 20, 1
   5              		.eabi_attribute 21, 1
   6              		.eabi_attribute 23, 3
   7              		.eabi_attribute 24, 1
   8              		.eabi_attribute 25, 1
   9              		.eabi_attribute 26, 1
  10              		.eabi_attribute 30, 6
  11              		.eabi_attribute 34, 1
  12              		.eabi_attribute 18, 4
  13              		.thumb
  14              		.syntax unified
  15              		.file	"main.c"
  16              		.text
  17              	.Ltext0:
  18              		.cfi_sections	.debug_frame
  19              		.comm	Output,2,2
  20              		.comm	ContinuouslySendData,1,1
  21              		.comm	SendSingleByte,1,1
  22              		.comm	SendEmulatedData,1,1
  23              		.comm	TransmitBuffer,16,4
  24              		.comm	EmulatedData,1,1
  25              		.section	.rodata
  26              		.align	2
  27              	.LC0:
  28 0000 25580D0A 		.ascii	"%X\015\012\000"
  28      00
  29 0005 000000   		.align	2
  30              	.LC1:
  31 0008 25780D0A 		.ascii	"%x\015\012\000"
  31      00
  32              		.section	.text.Transmit,"ax",%progbits
  33              		.align	2
  34              		.global	Transmit
  35              		.thumb
  36              		.thumb_func
  37              		.type	Transmit, %function
  38              	Transmit:
  39              	.LFB64:
  40              		.file 1 "main.c"
   1:main.c        **** /******************************************************************************
   2:main.c        **** * Project Name		: CE95277 ADC and UART
   3:main.c        **** * File Name			: main.c
   4:main.c        **** * Version 			: **
   5:main.c        **** * Device Used		: CY8C5888LTI-LP097
   6:main.c        **** * Software Used		: PSoC Creator 3.1 SP2
   7:main.c        **** * Compiler    		: ARM GCC 4.8.4, ARM RVDS Generic, ARM MDK Generic
   8:main.c        **** * Related Hardware	: CY8CKIT059 PSoC 5 LP Prototyping Kit 
   9:main.c        **** * Owner				: KLMZ
  10:main.c        **** *
  11:main.c        **** ********************************************************************************
  12:main.c        **** * Copyright (2015), Cypress Semiconductor Corporation. All Rights Reserved.
  13:main.c        **** ********************************************************************************
  14:main.c        **** * This software is owned by Cypress Semiconductor Corporation (Cypress)
  15:main.c        **** * and is protected by and subject to worldwide patent protection (United
ARM GAS  C:\Users\LUISAL~1\AppData\Local\Temp\ccQz8dkj.s 			page 2


  16:main.c        **** * States and foreign), United States copyright laws and international treaty
  17:main.c        **** * provisions. Cypress hereby grants to licensee a personal, non-exclusive,
  18:main.c        **** * non-transferable license to copy, use, modify, create derivative works of,
  19:main.c        **** * and compile the Cypress Source Code and derivative works for the sole
  20:main.c        **** * purpose of creating custom software in support of licensee product to be
  21:main.c        **** * used only in conjunction with a Cypress integrated circuit as specified in
  22:main.c        **** * the applicable agreement. Any reproduction, modification, translation,
  23:main.c        **** * compilation, or representation of this software except as specified above 
  24:main.c        **** * is prohibited without the express written permission of Cypress.
  25:main.c        **** *
  26:main.c        **** * Disclaimer: CYPRESS MAKES NO WARRANTY OF ANY KIND, EXPRESS OR IMPLIED, WITH 
  27:main.c        **** * REGARD TO THIS MATERIAL, INCLUDING, BUT NOT LIMITED TO, THE IMPLIED 
  28:main.c        **** * WARRANTIES OF MERCHANTABILITY AND FITNESS FOR A PARTICULAR PURPOSE.
  29:main.c        **** * Cypress reserves the right to make changes without further notice to the 
  30:main.c        **** * materials described herein. Cypress does not assume any liability arising out 
  31:main.c        **** * of the application or use of any product or circuit described herein. Cypress 
  32:main.c        **** * does not authorize its products for use as critical components in life-support 
  33:main.c        **** * systems where a malfunction or failure may reasonably be expected to result in 
  34:main.c        **** * significant injury to the user. The inclusion of Cypress' product in a life-
  35:main.c        **** * support systems application implies that the manufacturer assumes all risk of 
  36:main.c        **** * such use and in doing so indemnifies Cypress against all charges. 
  37:main.c        **** *
  38:main.c        **** * Use of this Software may be limited by and subject to the applicable Cypress
  39:main.c        **** * software license agreement. 
  40:main.c        **** *******************************************************************************/
  41:main.c        **** 
  42:main.c        **** #include <device.h>
  43:main.c        **** #include "stdio.h"
  44:main.c        **** 
  45:main.c        **** /* Project Defines */
  46:main.c        **** #define FALSE  0
  47:main.c        **** #define TRUE   1
  48:main.c        **** #define TRANSMIT_BUFFER_SIZE  16
  49:main.c        **** 
  50:main.c        ****     /* Variable to store ADC result */
  51:main.c        ****     uint16 Output;
  52:main.c        ****     /* Flags used to store transmit data commands */
  53:main.c        ****     uint8 ContinuouslySendData;
  54:main.c        ****     uint8 SendSingleByte;
  55:main.c        ****     uint8 SendEmulatedData;
  56:main.c        ****     /* Transmit Buffer */
  57:main.c        ****     char TransmitBuffer[TRANSMIT_BUFFER_SIZE];
  58:main.c        ****     /* Variable used to send emulated data */
  59:main.c        ****     uint8 EmulatedData;
  60:main.c        **** 
  61:main.c        **** 
  62:main.c        **** CY_ISR_PROTO(Transmit);
  63:main.c        **** 
  64:main.c        **** CY_ISR(Transmit)
  65:main.c        **** {
  41              		.loc 1 65 0
  42              		.cfi_startproc
  43              		@ args = 0, pretend = 0, frame = 0
  44              		@ frame_needed = 1, uses_anonymous_args = 0
  45 0000 80B5     		push	{r7, lr}
  46              		.cfi_def_cfa_offset 8
  47              		.cfi_offset 7, -8
ARM GAS  C:\Users\LUISAL~1\AppData\Local\Temp\ccQz8dkj.s 			page 3


  48              		.cfi_offset 14, -4
  49 0002 00AF     		add	r7, sp, #0
  50              		.cfi_def_cfa_register 7
  66:main.c        ****         /* Check to see if an ADC conversion has completed */
  67:main.c        ****         if(ADC_DelSig_1_IsEndConversion(ADC_DelSig_1_RETURN_STATUS))
  51              		.loc 1 67 0
  52 0004 0120     		movs	r0, #1
  53 0006 FFF7FEFF 		bl	ADC_DelSig_1_IsEndConversion
  54 000a 0346     		mov	r3, r0
  55 000c 002B     		cmp	r3, #0
  56 000e 32D0     		beq	.L5
  68:main.c        ****         {
  69:main.c        ****             /* Use the GetResult16 API to get an 8 bit unsigned result in
  70:main.c        ****              * single ended mode.  The API CountsTo_mVolts is then used
  71:main.c        ****              * to convert the ADC counts into mV before transmitting via
  72:main.c        ****              * the UART.  See the datasheet API description for more
  73:main.c        ****              * details */
  74:main.c        ****             //Output = ADC_DelSig_1_CountsTo_mVolts(ADC_DelSig_1_GetResult16());
  75:main.c        ****             Output = ADC_DelSig_1_GetResult16();
  57              		.loc 1 75 0
  58 0010 FFF7FEFF 		bl	ADC_DelSig_1_GetResult16
  59 0014 0346     		mov	r3, r0
  60 0016 9AB2     		uxth	r2, r3
  61 0018 184B     		ldr	r3, .L6
  62 001a 1A80     		strh	r2, [r3]	@ movhi
  76:main.c        ****             
  77:main.c        ****             /* Send data based on last UART command */
  78:main.c        ****             if(SendSingleByte || ContinuouslySendData)
  63              		.loc 1 78 0
  64 001c 184B     		ldr	r3, .L6+4
  65 001e 1B78     		ldrb	r3, [r3]	@ zero_extendqisi2
  66 0020 002B     		cmp	r3, #0
  67 0022 03D1     		bne	.L3
  68              		.loc 1 78 0 is_stmt 0 discriminator 1
  69 0024 174B     		ldr	r3, .L6+8
  70 0026 1B78     		ldrb	r3, [r3]	@ zero_extendqisi2
  71 0028 002B     		cmp	r3, #0
  72 002a 0DD0     		beq	.L4
  73              	.L3:
  79:main.c        ****             {
  80:main.c        ****                 /* Format ADC result for transmition */
  81:main.c        ****                 //sprintf(TransmitBuffer, "Sample: %d mV\r\n", Output);
  82:main.c        ****                 sprintf(TransmitBuffer, "%X\r\n", Output);
  74              		.loc 1 82 0 is_stmt 1
  75 002c 134B     		ldr	r3, .L6
  76 002e 1B88     		ldrh	r3, [r3]
  77 0030 1A46     		mov	r2, r3
  78 0032 1549     		ldr	r1, .L6+12
  79 0034 1548     		ldr	r0, .L6+16
  80 0036 FFF7FEFF 		bl	sprintf
  83:main.c        ****                 /* Send out the data */
  84:main.c        ****                 UART_1_PutString(TransmitBuffer);
  81              		.loc 1 84 0
  82 003a 1448     		ldr	r0, .L6+16
  83 003c FFF7FEFF 		bl	UART_1_PutString
  85:main.c        ****                 /* Reset the send once flag */
  86:main.c        ****                 SendSingleByte = FALSE;
ARM GAS  C:\Users\LUISAL~1\AppData\Local\Temp\ccQz8dkj.s 			page 4


  84              		.loc 1 86 0
  85 0040 0F4B     		ldr	r3, .L6+4
  86 0042 0022     		movs	r2, #0
  87 0044 1A70     		strb	r2, [r3]
  87:main.c        ****             }
  88:main.c        ****             else if(SendEmulatedData)
  89:main.c        ****             {
  90:main.c        ****                 /* Format ADC result for transmition */
  91:main.c        ****                 sprintf(TransmitBuffer, "%x\r\n", EmulatedData);
  92:main.c        ****                 /* Send out the data */
  93:main.c        ****                 UART_1_PutString(TransmitBuffer);
  94:main.c        ****                 EmulatedData++;
  95:main.c        ****                 /* Reset the send once flag */
  96:main.c        ****                 SendEmulatedData = FALSE;   
  97:main.c        ****             }
  98:main.c        ****         }    
  99:main.c        ****     
 100:main.c        **** }
  88              		.loc 1 100 0
  89 0046 16E0     		b	.L5
  90              	.L4:
  88:main.c        ****             {
  91              		.loc 1 88 0
  92 0048 114B     		ldr	r3, .L6+20
  93 004a 1B78     		ldrb	r3, [r3]	@ zero_extendqisi2
  94 004c 002B     		cmp	r3, #0
  95 004e 12D0     		beq	.L5
  91:main.c        ****                 /* Send out the data */
  96              		.loc 1 91 0
  97 0050 104B     		ldr	r3, .L6+24
  98 0052 1B78     		ldrb	r3, [r3]	@ zero_extendqisi2
  99 0054 1A46     		mov	r2, r3
 100 0056 1049     		ldr	r1, .L6+28
 101 0058 0C48     		ldr	r0, .L6+16
 102 005a FFF7FEFF 		bl	sprintf
  93:main.c        ****                 EmulatedData++;
 103              		.loc 1 93 0
 104 005e 0B48     		ldr	r0, .L6+16
 105 0060 FFF7FEFF 		bl	UART_1_PutString
  94:main.c        ****                 /* Reset the send once flag */
 106              		.loc 1 94 0
 107 0064 0B4B     		ldr	r3, .L6+24
 108 0066 1B78     		ldrb	r3, [r3]	@ zero_extendqisi2
 109 0068 0133     		adds	r3, r3, #1
 110 006a DAB2     		uxtb	r2, r3
 111 006c 094B     		ldr	r3, .L6+24
 112 006e 1A70     		strb	r2, [r3]
  96:main.c        ****             }
 113              		.loc 1 96 0
 114 0070 074B     		ldr	r3, .L6+20
 115 0072 0022     		movs	r2, #0
 116 0074 1A70     		strb	r2, [r3]
 117              	.L5:
 118              		.loc 1 100 0
 119 0076 00BF     		nop
 120 0078 80BD     		pop	{r7, pc}
 121              	.L7:
ARM GAS  C:\Users\LUISAL~1\AppData\Local\Temp\ccQz8dkj.s 			page 5


 122 007a 00BF     		.align	2
 123              	.L6:
 124 007c 00000000 		.word	Output
 125 0080 00000000 		.word	SendSingleByte
 126 0084 00000000 		.word	ContinuouslySendData
 127 0088 00000000 		.word	.LC0
 128 008c 00000000 		.word	TransmitBuffer
 129 0090 00000000 		.word	SendEmulatedData
 130 0094 00000000 		.word	EmulatedData
 131 0098 08000000 		.word	.LC1
 132              		.cfi_endproc
 133              	.LFE64:
 134              		.size	Transmit, .-Transmit
 135              		.section	.rodata
 136 000d 000000   		.align	2
 137              	.LC2:
 138 0010 434F4D20 		.ascii	"COM Port Open\000"
 138      506F7274 
 138      204F7065 
 138      6E00
 139              		.section	.text.main,"ax",%progbits
 140              		.align	2
 141              		.global	main
 142              		.thumb
 143              		.thumb_func
 144              		.type	main, %function
 145              	main:
 146              	.LFB65:
 101:main.c        **** 
 102:main.c        **** /*******************************************************************************
 103:main.c        **** * Function Name: main
 104:main.c        **** ********************************************************************************
 105:main.c        **** *
 106:main.c        **** * Summary:
 107:main.c        **** *  main() performs following functions:
 108:main.c        **** *  1: Starts the ADC and UART components.
 109:main.c        **** *  2: Checks for ADC end of conversion.  Stores latest result in output
 110:main.c        **** *     if conversion complete.
 111:main.c        **** *  3: Checks for UART input.
 112:main.c        **** *     On 'C' or 'c' received: transmits the last sample via the UART.
 113:main.c        **** *     On 'S' or 's' received: continuously transmits samples as they are completed.
 114:main.c        **** *     On 'X' or 'x' received: stops continuously transmitting samples.
 115:main.c        **** *     On 'E' or 'e' received: transmits a dummy byte of data.
 116:main.c        **** *
 117:main.c        **** * Parameters:
 118:main.c        **** *  None.
 119:main.c        **** *
 120:main.c        **** * Return:
 121:main.c        **** *  None.
 122:main.c        **** *
 123:main.c        **** *******************************************************************************/
 124:main.c        **** int main()
 125:main.c        **** {
 147              		.loc 1 125 0
 148              		.cfi_startproc
 149              		@ args = 0, pretend = 0, frame = 8
 150              		@ frame_needed = 1, uses_anonymous_args = 0
ARM GAS  C:\Users\LUISAL~1\AppData\Local\Temp\ccQz8dkj.s 			page 6


 151 0000 80B5     		push	{r7, lr}
 152              		.cfi_def_cfa_offset 8
 153              		.cfi_offset 7, -8
 154              		.cfi_offset 14, -4
 155 0002 82B0     		sub	sp, sp, #8
 156              		.cfi_def_cfa_offset 16
 157 0004 00AF     		add	r7, sp, #0
 158              		.cfi_def_cfa_register 7
 126:main.c        ****     /* Variable to store UART received character */
 127:main.c        ****     uint8 Ch;
 128:main.c        ****     
 129:main.c        ****     /* Start the components */
 130:main.c        ****     ADC_DelSig_1_Start();
 159              		.loc 1 130 0
 160 0006 FFF7FEFF 		bl	ADC_DelSig_1_Start
 131:main.c        ****     UART_1_Start();
 161              		.loc 1 131 0
 162 000a FFF7FEFF 		bl	UART_1_Start
 132:main.c        ****     Col_Tone_Start();
 163              		.loc 1 132 0
 164 000e FFF7FEFF 		bl	Col_Tone_Start
 133:main.c        ****     Row_Tone_Start();
 165              		.loc 1 133 0
 166 0012 FFF7FEFF 		bl	Row_Tone_Start
 134:main.c        ****     
 135:main.c        ****     /* Initialize Variables */
 136:main.c        ****     ContinuouslySendData = FALSE;
 167              		.loc 1 136 0
 168 0016 254B     		ldr	r3, .L21
 169 0018 0022     		movs	r2, #0
 170 001a 1A70     		strb	r2, [r3]
 137:main.c        ****     SendSingleByte = FALSE;
 171              		.loc 1 137 0
 172 001c 244B     		ldr	r3, .L21+4
 173 001e 0022     		movs	r2, #0
 174 0020 1A70     		strb	r2, [r3]
 138:main.c        ****     SendEmulatedData = FALSE;
 175              		.loc 1 138 0
 176 0022 244B     		ldr	r3, .L21+8
 177 0024 0022     		movs	r2, #0
 178 0026 1A70     		strb	r2, [r3]
 139:main.c        ****     EmulatedData = 0;
 179              		.loc 1 139 0
 180 0028 234B     		ldr	r3, .L21+12
 181 002a 0022     		movs	r2, #0
 182 002c 1A70     		strb	r2, [r3]
 140:main.c        ****     
 141:main.c        ****     /* Start the ADC conversion */
 142:main.c        ****     ADC_DelSig_1_StartConvert();
 183              		.loc 1 142 0
 184 002e FFF7FEFF 		bl	ADC_DelSig_1_StartConvert
 143:main.c        ****     
 144:main.c        ****     /* Send message to verify COM port is connected properly */
 145:main.c        ****     UART_1_PutString("COM Port Open");
 185              		.loc 1 145 0
 186 0032 2248     		ldr	r0, .L21+16
 187 0034 FFF7FEFF 		bl	UART_1_PutString
ARM GAS  C:\Users\LUISAL~1\AppData\Local\Temp\ccQz8dkj.s 			page 7


 146:main.c        ****     
 147:main.c        ****     Timer_Start();
 188              		.loc 1 147 0
 189 0038 FFF7FEFF 		bl	Timer_Start
 148:main.c        ****     isr_StartEx(Transmit);
 190              		.loc 1 148 0
 191 003c 2048     		ldr	r0, .L21+20
 192 003e FFF7FEFF 		bl	isr_StartEx
 149:main.c        ****     CyGlobalIntEnable;
 193              		.loc 1 149 0
 194              		.syntax unified
 195              	@ 149 "main.c" 1
 196 0042 62B6     		CPSIE   i
 197              	@ 0 "" 2
 198              		.thumb
 199              		.syntax unified
 200              	.L19:
 150:main.c        ****     
 151:main.c        ****     for(;;)
 152:main.c        ****     {        
 153:main.c        ****         /* Non-blocking call to get the latest data recieved  */
 154:main.c        ****         Ch = UART_1_GetChar();
 201              		.loc 1 154 0
 202 0044 FFF7FEFF 		bl	UART_1_GetChar
 203 0048 0346     		mov	r3, r0
 204 004a FB71     		strb	r3, [r7, #7]
 155:main.c        ****         
 156:main.c        ****         /* Set flags based on UART command */
 157:main.c        ****         switch(Ch)
 205              		.loc 1 157 0
 206 004c FB79     		ldrb	r3, [r7, #7]	@ zero_extendqisi2
 207 004e 582B     		cmp	r3, #88
 208 0050 21D0     		beq	.L10
 209 0052 582B     		cmp	r3, #88
 210 0054 0BDC     		bgt	.L11
 211 0056 432B     		cmp	r3, #67
 212 0058 15D0     		beq	.L12
 213 005a 432B     		cmp	r3, #67
 214 005c 02DC     		bgt	.L13
 215 005e 002B     		cmp	r3, #0
 216 0060 21D0     		beq	.L20
 158:main.c        ****         {
 159:main.c        ****             case 0:
 160:main.c        ****                 /* No new data was recieved */
 161:main.c        ****                 break;
 162:main.c        ****             case 'C':
 163:main.c        ****             case 'c':
 164:main.c        ****                 SendSingleByte = TRUE;
 165:main.c        ****                 break;
 166:main.c        ****             case 'S':
 167:main.c        ****             case 's':
 168:main.c        ****                 ContinuouslySendData = TRUE;
 169:main.c        ****                 break;
 170:main.c        ****             case 'X':
 171:main.c        ****             case 'x':
 172:main.c        ****                 ContinuouslySendData = FALSE;
 173:main.c        ****                 break;
ARM GAS  C:\Users\LUISAL~1\AppData\Local\Temp\ccQz8dkj.s 			page 8


 174:main.c        ****             case 'E':
 175:main.c        ****             case 'e':
 176:main.c        ****                 SendEmulatedData = TRUE;
 177:main.c        ****                 break;
 178:main.c        ****             default:
 179:main.c        ****                 /* Place error handling code here */
 180:main.c        ****                 break;    
 217              		.loc 1 180 0
 218 0062 21E0     		b	.L18
 219              	.L13:
 157:main.c        ****         {
 220              		.loc 1 157 0
 221 0064 452B     		cmp	r3, #69
 222 0066 1AD0     		beq	.L15
 223 0068 532B     		cmp	r3, #83
 224 006a 10D0     		beq	.L16
 225              		.loc 1 180 0
 226 006c 1CE0     		b	.L18
 227              	.L11:
 157:main.c        ****         {
 228              		.loc 1 157 0
 229 006e 652B     		cmp	r3, #101
 230 0070 15D0     		beq	.L15
 231 0072 652B     		cmp	r3, #101
 232 0074 02DC     		bgt	.L17
 233 0076 632B     		cmp	r3, #99
 234 0078 05D0     		beq	.L12
 235              		.loc 1 180 0
 236 007a 15E0     		b	.L18
 237              	.L17:
 157:main.c        ****         {
 238              		.loc 1 157 0
 239 007c 732B     		cmp	r3, #115
 240 007e 06D0     		beq	.L16
 241 0080 782B     		cmp	r3, #120
 242 0082 08D0     		beq	.L10
 243              		.loc 1 180 0
 244 0084 10E0     		b	.L18
 245              	.L12:
 164:main.c        ****                 break;
 246              		.loc 1 164 0
 247 0086 0A4B     		ldr	r3, .L21+4
 248 0088 0122     		movs	r2, #1
 249 008a 1A70     		strb	r2, [r3]
 165:main.c        ****             case 'S':
 250              		.loc 1 165 0
 251 008c 0CE0     		b	.L18
 252              	.L16:
 168:main.c        ****                 break;
 253              		.loc 1 168 0
 254 008e 074B     		ldr	r3, .L21
 255 0090 0122     		movs	r2, #1
 256 0092 1A70     		strb	r2, [r3]
 169:main.c        ****             case 'X':
 257              		.loc 1 169 0
 258 0094 08E0     		b	.L18
 259              	.L10:
ARM GAS  C:\Users\LUISAL~1\AppData\Local\Temp\ccQz8dkj.s 			page 9


 172:main.c        ****                 break;
 260              		.loc 1 172 0
 261 0096 054B     		ldr	r3, .L21
 262 0098 0022     		movs	r2, #0
 263 009a 1A70     		strb	r2, [r3]
 173:main.c        ****             case 'E':
 264              		.loc 1 173 0
 265 009c 04E0     		b	.L18
 266              	.L15:
 176:main.c        ****                 break;
 267              		.loc 1 176 0
 268 009e 054B     		ldr	r3, .L21+8
 269 00a0 0122     		movs	r2, #1
 270 00a2 1A70     		strb	r2, [r3]
 177:main.c        ****             default:
 271              		.loc 1 177 0
 272 00a4 00E0     		b	.L18
 273              	.L20:
 161:main.c        ****             case 'C':
 274              		.loc 1 161 0
 275 00a6 00BF     		nop
 276              	.L18:
 181:main.c        ****         }
 182:main.c        ****         
 183:main.c        ****     }
 277              		.loc 1 183 0 discriminator 1
 278 00a8 CCE7     		b	.L19
 279              	.L22:
 280 00aa 00BF     		.align	2
 281              	.L21:
 282 00ac 00000000 		.word	ContinuouslySendData
 283 00b0 00000000 		.word	SendSingleByte
 284 00b4 00000000 		.word	SendEmulatedData
 285 00b8 00000000 		.word	EmulatedData
 286 00bc 10000000 		.word	.LC2
 287 00c0 00000000 		.word	Transmit
 288              		.cfi_endproc
 289              	.LFE65:
 290              		.size	main, .-main
 291              		.text
 292              	.Letext0:
 293              		.file 2 "c:\\program files (x86)\\cypress\\psoc creator\\4.1\\psoc creator\\import\\gnu\\arm\\5.4.
 294              		.file 3 "c:\\program files (x86)\\cypress\\psoc creator\\4.1\\psoc creator\\import\\gnu\\arm\\5.4.
 295              		.file 4 "Generated_Source\\PSoC5/cytypes.h"
 296              		.file 5 "Generated_Source\\PSoC5/core_cm3.h"