ARM GAS  C:\Users\LUISAL~1\AppData\Local\Temp\ccNDWXIu.s 			page 1


   1              		.syntax unified
   2              		.cpu cortex-m3
   3              		.fpu softvfp
   4              		.eabi_attribute 20, 1
   5              		.eabi_attribute 21, 1
   6              		.eabi_attribute 23, 3
   7              		.eabi_attribute 24, 1
   8              		.eabi_attribute 25, 1
   9              		.eabi_attribute 26, 1
  10              		.eabi_attribute 30, 6
  11              		.eabi_attribute 34, 1
  12              		.eabi_attribute 18, 4
  13              		.thumb
  14              		.syntax unified
  15              		.file	"main.c"
  16              		.text
  17              	.Ltext0:
  18              		.cfi_sections	.debug_frame
  19              		.global	keyCodes
  20              		.data
  21              		.align	2
  22              		.type	keyCodes, %object
  23              		.size	keyCodes, 17
  24              	keyCodes:
  25 0000 31323341 		.ascii	"123A456B789C*0#D\000"
  25      34353642 
  25      37383943 
  25      2A302344 
  25      00
  26              		.global	rowDiv
  27 0011 000000   		.align	2
  28              		.type	rowDiv, %object
  29              		.size	rowDiv, 4
  30              	rowDiv:
  31 0014 D6       		.byte	-42
  32 0015 C2       		.byte	-62
  33 0016 AF       		.byte	-81
  34 0017 9E       		.byte	-98
  35              		.global	colDiv
  36              		.align	2
  37              		.type	colDiv, %object
  38              		.size	colDiv, 4
  39              	colDiv:
  40 0018 C6       		.byte	-58
  41 0019 B3       		.byte	-77
  42 001a A1       		.byte	-95
  43 001b 92       		.byte	-110
  44              		.comm	TransmitBuffer,16,4
  45              		.section	.rodata
  46              		.align	2
  47              	.LC0:
  48 0000 434F4D20 		.ascii	"COM Port Open\015\012\000"
  48      506F7274 
  48      204F7065 
  48      6E0D0A00 
  49              		.align	2
  50              	.LC1:
ARM GAS  C:\Users\LUISAL~1\AppData\Local\Temp\ccNDWXIu.s 			page 2


  51 0010 4B657920 		.ascii	"Key pressed: %s\015\012\000"
  51      70726573 
  51      7365643A 
  51      2025730D 
  51      0A00
  52              		.section	.text.main,"ax",%progbits
  53              		.align	2
  54              		.global	main
  55              		.thumb
  56              		.thumb_func
  57              		.type	main, %function
  58              	main:
  59              	.LFB64:
  60              		.file 1 "main.c"
   1:main.c        **** /******************************************************************************
   2:main.c        **** * Project Name		: CE95277 ADC and UART
   3:main.c        **** * File Name			: main.c
   4:main.c        **** * Version 			: **
   5:main.c        **** * Device Used		: CY8C5888LTI-LP097
   6:main.c        **** * Software Used		: PSoC Creator 3.1 SP2
   7:main.c        **** * Compiler    		: ARM GCC 4.8.4, ARM RVDS Generic, ARM MDK Generic
   8:main.c        **** * Related Hardware	: CY8CKIT059 PSoC 5 LP Prototyping Kit 
   9:main.c        **** * Owner				: KLMZ
  10:main.c        **** *
  11:main.c        **** ********************************************************************************
  12:main.c        **** * Copyright (2015), Cypress Semiconductor Corporation. All Rights Reserved.
  13:main.c        **** ********************************************************************************
  14:main.c        **** * This software is owned by Cypress Semiconductor Corporation (Cypress)
  15:main.c        **** * and is protected by and subject to worldwide patent protection (United
  16:main.c        **** * States and foreign), United States copyright laws and international treaty
  17:main.c        **** * provisions. Cypress hereby grants to licensee a personal, non-exclusive,
  18:main.c        **** * non-transferable license to copy, use, modify, create derivative works of,
  19:main.c        **** * and compile the Cypress Source Code and derivative works for the sole
  20:main.c        **** * purpose of creating custom software in support of licensee product to be
  21:main.c        **** * used only in conjunction with a Cypress integrated circuit as specified in
  22:main.c        **** * the applicable agreement. Any reproduction, modification, translation,
  23:main.c        **** * compilation, or representation of this software except as specified above 
  24:main.c        **** * is prohibited without the express written permission of Cypress.
  25:main.c        **** *
  26:main.c        **** * Disclaimer: CYPRESS MAKES NO WARRANTY OF ANY KIND, EXPRESS OR IMPLIED, WITH 
  27:main.c        **** * REGARD TO THIS MATERIAL, INCLUDING, BUT NOT LIMITED TO, THE IMPLIED 
  28:main.c        **** * WARRANTIES OF MERCHANTABILITY AND FITNESS FOR A PARTICULAR PURPOSE.
  29:main.c        **** * Cypress reserves the right to make changes without further notice to the 
  30:main.c        **** * materials described herein. Cypress does not assume any liability arising out 
  31:main.c        **** * of the application or use of any product or circuit described herein. Cypress 
  32:main.c        **** * does not authorize its products for use as critical components in life-support 
  33:main.c        **** * systems where a malfunction or failure may reasonably be expected to result in 
  34:main.c        **** * significant injury to the user. The inclusion of Cypress' product in a life-
  35:main.c        **** * support systems application implies that the manufacturer assumes all risk of 
  36:main.c        **** * such use and in doing so indemnifies Cypress against all charges. 
  37:main.c        **** *
  38:main.c        **** * Use of this Software may be limited by and subject to the applicable Cypress
  39:main.c        **** * software license agreement. 
  40:main.c        **** *******************************************************************************/
  41:main.c        **** 
  42:main.c        **** #include <device.h>
  43:main.c        **** #include "stdio.h"
ARM GAS  C:\Users\LUISAL~1\AppData\Local\Temp\ccNDWXIu.s 			page 3


  44:main.c        **** 
  45:main.c        **** /* Project Defines */
  46:main.c        **** #define FALSE  0
  47:main.c        **** #define TRUE   1
  48:main.c        **** #define TRANSMIT_BUFFER_SIZE  16
  49:main.c        **** #define TONE_DURATION_MS 80 /* Duration of tone in mSec */
  50:main.c        **** #define TONE_SPACE_MS 65 /* Duration of space between tones in mSec */
  51:main.c        **** #define TONE_PAUSE_MS 100 /* Pause caused by invalid code */
  52:main.c        **** 
  53:main.c        **** /* Function prototypes */
  54:main.c        **** void DialNumber( char * number );
  55:main.c        **** void PlayTones( char key );
  56:main.c        **** int8 KeyIndex(char * keyString, char key);
  57:main.c        **** 
  58:main.c        **** char keyCodes[] = "123A456B789C*0#D"; /* Valid character array */
  59:main.c        **** /* The tables below store the dividers loaded into */
  60:main.c        **** /* the counter period register to generate the row */
  61:main.c        **** /* and column tones. */
  62:main.c        **** 
  63:main.c        **** /* Row Tones (Hz) 697  770  852  941      */
  64:main.c        **** uint8 rowDiv[] = {214, 194, 175, 158};
  65:main.c        **** 
  66:main.c        **** /* Col Tones (Hz) 1209  1336  1477  1633  */
  67:main.c        **** uint8 colDiv[] = { 198,  179,  161,  146};
  68:main.c        **** 
  69:main.c        **** /* Transmit Buffer */
  70:main.c        **** char TransmitBuffer[TRANSMIT_BUFFER_SIZE];
  71:main.c        **** 
  72:main.c        **** /*******************************************************************************
  73:main.c        **** * Function Name: main
  74:main.c        **** ********************************************************************************
  75:main.c        **** *
  76:main.c        **** * Summary:
  77:main.c        **** *  main() performs following functions:
  78:main.c        **** *  1: Starts the ADC and UART components.
  79:main.c        **** *  2: Checks for ADC end of conversion.  Stores latest result in output
  80:main.c        **** *     if conversion complete.
  81:main.c        **** *  3: Checks for UART input.
  82:main.c        **** *     On 'C' or 'c' received: transmits the last sample via the UART.
  83:main.c        **** *     On 'S' or 's' received: continuously transmits samples as they are completed.
  84:main.c        **** *     On 'X' or 'x' received: stops continuously transmitting samples.
  85:main.c        **** *     On 'E' or 'e' received: transmits a dummy byte of data.
  86:main.c        **** *
  87:main.c        **** * Parameters:
  88:main.c        **** *  None.
  89:main.c        **** *
  90:main.c        **** * Return:
  91:main.c        **** *  None.
  92:main.c        **** *
  93:main.c        **** *******************************************************************************/
  94:main.c        **** int main()
  95:main.c        **** {
  61              		.loc 1 95 0
  62              		.cfi_startproc
  63              		@ args = 0, pretend = 0, frame = 8
  64              		@ frame_needed = 1, uses_anonymous_args = 0
  65 0000 80B5     		push	{r7, lr}
ARM GAS  C:\Users\LUISAL~1\AppData\Local\Temp\ccNDWXIu.s 			page 4


  66              		.cfi_def_cfa_offset 8
  67              		.cfi_offset 7, -8
  68              		.cfi_offset 14, -4
  69 0002 82B0     		sub	sp, sp, #8
  70              		.cfi_def_cfa_offset 16
  71 0004 00AF     		add	r7, sp, #0
  72              		.cfi_def_cfa_register 7
  96:main.c        ****     /* Variable to store UART received character */
  97:main.c        ****     uint8 Ch;
  98:main.c        ****     
  99:main.c        ****     /* Start the components */
 100:main.c        ****     UART_1_Start();
  73              		.loc 1 100 0
  74 0006 FFF7FEFF 		bl	UART_1_Start
 101:main.c        ****     ToneClock_Stop();
  75              		.loc 1 101 0
  76 000a FFF7FEFF 		bl	ToneClock_Stop
 102:main.c        **** 	Row_Divider_Start();
  77              		.loc 1 102 0
  78 000e FFF7FEFF 		bl	Row_Divider_Start
 103:main.c        **** 	Col_Divider_Start();
  79              		.loc 1 103 0
  80 0012 FFF7FEFF 		bl	Col_Divider_Start
 104:main.c        **** 	Row_Tone_Start();
  81              		.loc 1 104 0
  82 0016 FFF7FEFF 		bl	Row_Tone_Start
 105:main.c        **** 	Col_Tone_Start();
  83              		.loc 1 105 0
  84 001a FFF7FEFF 		bl	Col_Tone_Start
 106:main.c        **** 	DTMF_Buffer_Start();
  85              		.loc 1 106 0
  86 001e FFF7FEFF 		bl	DTMF_Buffer_Start
 107:main.c        ****     
 108:main.c        ****     /* Send message to verify COM port is connected properly */
 109:main.c        ****     UART_1_PutString("COM Port Open\r\n");
  87              		.loc 1 109 0
  88 0022 1348     		ldr	r0, .L10
  89 0024 FFF7FEFF 		bl	UART_1_PutString
  90              	.L7:
 110:main.c        ****     
 111:main.c        ****     for(;;)
 112:main.c        ****     {        
 113:main.c        ****         /* Non-blocking call to get the latest data recieved  */
 114:main.c        ****         Ch = UART_1_GetChar();
  91              		.loc 1 114 0
  92 0028 FFF7FEFF 		bl	UART_1_GetChar
  93 002c 0346     		mov	r3, r0
  94 002e FB71     		strb	r3, [r7, #7]
 115:main.c        ****         
 116:main.c        ****         /* Set flags based on UART command */
 117:main.c        ****         switch(Ch)
  95              		.loc 1 117 0
  96 0030 FB79     		ldrb	r3, [r7, #7]	@ zero_extendqisi2
  97 0032 2A2B     		cmp	r3, #42
  98 0034 09D0     		beq	.L3
  99 0036 2A2B     		cmp	r3, #42
 100 0038 04DC     		bgt	.L4
ARM GAS  C:\Users\LUISAL~1\AppData\Local\Temp\ccNDWXIu.s 			page 5


 101 003a 002B     		cmp	r3, #0
 102 003c 13D0     		beq	.L8
 103 003e 232B     		cmp	r3, #35
 104 0040 03D0     		beq	.L3
 118:main.c        ****         {
 119:main.c        ****             case 0:
 120:main.c        ****                 /* No new data was recieved */
 121:main.c        ****                 break;
 122:main.c        ****             case '0':
 123:main.c        ****             case '1':
 124:main.c        ****             case '2':
 125:main.c        ****             case '3':
 126:main.c        ****             case '4':
 127:main.c        ****             case '5':
 128:main.c        ****             case '6':
 129:main.c        ****             case '7':
 130:main.c        ****             case '8':
 131:main.c        ****             case '9':
 132:main.c        ****             case '*':
 133:main.c        ****             case '#':
 134:main.c        ****                 sprintf(TransmitBuffer, "Key pressed: %s\r\n", (char*)&Ch);
 135:main.c        ****                 UART_1_PutString(TransmitBuffer);
 136:main.c        ****                 DialNumber((char*)&Ch);
 137:main.c        ****                 break;
 138:main.c        ****             default:
 139:main.c        ****                 /* Place error handling code here */
 140:main.c        ****                 break;    
 105              		.loc 1 140 0
 106 0042 12E0     		b	.L9
 107              	.L4:
 117:main.c        ****         {
 108              		.loc 1 117 0
 109 0044 303B     		subs	r3, r3, #48
 110 0046 092B     		cmp	r3, #9
 111 0048 0FD8     		bhi	.L9
 112              	.L3:
 134:main.c        ****                 UART_1_PutString(TransmitBuffer);
 113              		.loc 1 134 0
 114 004a FB1D     		adds	r3, r7, #7
 115 004c 1A46     		mov	r2, r3
 116 004e 0949     		ldr	r1, .L10+4
 117 0050 0948     		ldr	r0, .L10+8
 118 0052 FFF7FEFF 		bl	sprintf
 135:main.c        ****                 DialNumber((char*)&Ch);
 119              		.loc 1 135 0
 120 0056 0848     		ldr	r0, .L10+8
 121 0058 FFF7FEFF 		bl	UART_1_PutString
 136:main.c        ****                 break;
 122              		.loc 1 136 0
 123 005c FB1D     		adds	r3, r7, #7
 124 005e 1846     		mov	r0, r3
 125 0060 FFF7FEFF 		bl	DialNumber
 137:main.c        ****             default:
 126              		.loc 1 137 0
 127 0064 02E0     		b	.L6
 128              	.L8:
 121:main.c        ****             case '0':
ARM GAS  C:\Users\LUISAL~1\AppData\Local\Temp\ccNDWXIu.s 			page 6


 129              		.loc 1 121 0
 130 0066 00BF     		nop
 131 0068 DEE7     		b	.L7
 132              	.L9:
 133              		.loc 1 140 0
 134 006a 00BF     		nop
 135              	.L6:
 141:main.c        ****         }
 142:main.c        ****         
 143:main.c        ****     }
 136              		.loc 1 143 0 discriminator 1
 137 006c DCE7     		b	.L7
 138              	.L11:
 139 006e 00BF     		.align	2
 140              	.L10:
 141 0070 00000000 		.word	.LC0
 142 0074 10000000 		.word	.LC1
 143 0078 00000000 		.word	TransmitBuffer
 144              		.cfi_endproc
 145              	.LFE64:
 146              		.size	main, .-main
 147              		.section	.text.DialNumber,"ax",%progbits
 148              		.align	2
 149              		.global	DialNumber
 150              		.thumb
 151              		.thumb_func
 152              		.type	DialNumber, %function
 153              	DialNumber:
 154              	.LFB65:
 144:main.c        **** }
 145:main.c        **** 
 146:main.c        **** /*******************************************************************************
 147:main.c        **** * Function Name: DialNumber( char * number )
 148:main.c        **** ********************************************************************************
 149:main.c        **** *
 150:main.c        **** * Summary:
 151:main.c        **** * This function dials the number passed to it in a character string. After
 152:main.c        **** * the number has been dialed the funtions returns.
 153:main.c        **** *
 154:main.c        **** * Parameters:
 155:main.c        **** * char * number: Pointer to phone number string.
 156:main.c        **** *
 157:main.c        **** * Return:
 158:main.c        **** * void
 159:main.c        **** *
 160:main.c        **** *******************************************************************************/
 161:main.c        **** void DialNumber( char * number )
 162:main.c        **** {
 155              		.loc 1 162 0
 156              		.cfi_startproc
 157              		@ args = 0, pretend = 0, frame = 16
 158              		@ frame_needed = 1, uses_anonymous_args = 0
 159 0000 80B5     		push	{r7, lr}
 160              		.cfi_def_cfa_offset 8
 161              		.cfi_offset 7, -8
 162              		.cfi_offset 14, -4
 163 0002 84B0     		sub	sp, sp, #16
ARM GAS  C:\Users\LUISAL~1\AppData\Local\Temp\ccNDWXIu.s 			page 7


 164              		.cfi_def_cfa_offset 24
 165 0004 00AF     		add	r7, sp, #0
 166              		.cfi_def_cfa_register 7
 167 0006 7860     		str	r0, [r7, #4]
 163:main.c        ****     uint8 c = 0;
 168              		.loc 1 163 0
 169 0008 0023     		movs	r3, #0
 170 000a FB73     		strb	r3, [r7, #15]
 164:main.c        ****     while( number[c] != 0 ) /* Step through the dial string */
 171              		.loc 1 164 0
 172 000c 0CE0     		b	.L13
 173              	.L14:
 165:main.c        ****     {
 166:main.c        ****         PlayTones( number[c] ); /* Play tone for each digit */
 174              		.loc 1 166 0
 175 000e FB7B     		ldrb	r3, [r7, #15]	@ zero_extendqisi2
 176 0010 7A68     		ldr	r2, [r7, #4]
 177 0012 1344     		add	r3, r3, r2
 178 0014 1B78     		ldrb	r3, [r3]	@ zero_extendqisi2
 179 0016 1846     		mov	r0, r3
 180 0018 FFF7FEFF 		bl	PlayTones
 167:main.c        ****         CyDelay(TONE_SPACE_MS); /* Wait minimum space between tones */
 181              		.loc 1 167 0
 182 001c 4120     		movs	r0, #65
 183 001e FFF7FEFF 		bl	CyDelay
 168:main.c        ****         c++;
 184              		.loc 1 168 0
 185 0022 FB7B     		ldrb	r3, [r7, #15]	@ zero_extendqisi2
 186 0024 0133     		adds	r3, r3, #1
 187 0026 FB73     		strb	r3, [r7, #15]
 188              	.L13:
 164:main.c        ****     {
 189              		.loc 1 164 0
 190 0028 FB7B     		ldrb	r3, [r7, #15]	@ zero_extendqisi2
 191 002a 7A68     		ldr	r2, [r7, #4]
 192 002c 1344     		add	r3, r3, r2
 193 002e 1B78     		ldrb	r3, [r3]	@ zero_extendqisi2
 194 0030 002B     		cmp	r3, #0
 195 0032 ECD1     		bne	.L14
 169:main.c        ****     }
 170:main.c        **** }
 196              		.loc 1 170 0
 197 0034 00BF     		nop
 198 0036 1037     		adds	r7, r7, #16
 199              		.cfi_def_cfa_offset 8
 200 0038 BD46     		mov	sp, r7
 201              		.cfi_def_cfa_register 13
 202              		@ sp needed
 203 003a 80BD     		pop	{r7, pc}
 204              		.cfi_endproc
 205              	.LFE65:
 206              		.size	DialNumber, .-DialNumber
 207              		.section	.rodata
 208 0022 0000     		.align	2
 209              	.LC2:
 210 0024 53746F70 		.ascii	"Stop tone \015\012\000"
 210      20746F6E 
ARM GAS  C:\Users\LUISAL~1\AppData\Local\Temp\ccNDWXIu.s 			page 8


 210      65200D0A 
 210      00
 211              		.section	.text.PlayTones,"ax",%progbits
 212              		.align	2
 213              		.global	PlayTones
 214              		.thumb
 215              		.thumb_func
 216              		.type	PlayTones, %function
 217              	PlayTones:
 218              	.LFB66:
 171:main.c        **** 
 172:main.c        **** /*******************************************************************************
 173:main.c        **** * Function Name: PlayTones( )
 174:main.c        **** ********************************************************************************
 175:main.c        **** *
 176:main.c        **** * Summary:
 177:main.c        **** * Generates the two tones required to dial the given key code. The valid
 178:main.c        **** * dial characters are "1 2 3 4 5 6 7 8 9 0 A B C D * #". Any invalid
 179:main.c        **** * character will generate a pause.
 180:main.c        **** *
 181:main.c        **** * Parameters:
 182:main.c        **** * char key: Keypad character to be dialed.
 183:main.c        **** *
 184:main.c        **** * Return:
 185:main.c        **** * void
 186:main.c        **** *
 187:main.c        **** *******************************************************************************/
 188:main.c        **** void PlayTones( char key )
 189:main.c        **** {
 219              		.loc 1 189 0
 220              		.cfi_startproc
 221              		@ args = 0, pretend = 0, frame = 16
 222              		@ frame_needed = 1, uses_anonymous_args = 0
 223 0000 80B5     		push	{r7, lr}
 224              		.cfi_def_cfa_offset 8
 225              		.cfi_offset 7, -8
 226              		.cfi_offset 14, -4
 227 0002 84B0     		sub	sp, sp, #16
 228              		.cfi_def_cfa_offset 24
 229 0004 00AF     		add	r7, sp, #0
 230              		.cfi_def_cfa_register 7
 231 0006 0346     		mov	r3, r0
 232 0008 FB71     		strb	r3, [r7, #7]
 190:main.c        ****     int8 idx;
 191:main.c        ****     uint8 row_div, col_div;
 192:main.c        **** 
 193:main.c        ****     idx = KeyIndex(keyCodes, key); /* Convert key to "keyCodes" array index */
 233              		.loc 1 193 0
 234 000a FB79     		ldrb	r3, [r7, #7]	@ zero_extendqisi2
 235 000c 1946     		mov	r1, r3
 236 000e 1948     		ldr	r0, .L19
 237 0010 FFF7FEFF 		bl	KeyIndex
 238 0014 0346     		mov	r3, r0
 239 0016 FB73     		strb	r3, [r7, #15]
 194:main.c        ****     if (idx >= 0 ) /* Is key valid */
 240              		.loc 1 194 0
 241 0018 97F90F30 		ldrsb	r3, [r7, #15]
ARM GAS  C:\Users\LUISAL~1\AppData\Local\Temp\ccNDWXIu.s 			page 9


 242 001c 002B     		cmp	r3, #0
 243 001e 22DB     		blt	.L16
 195:main.c        ****     { /* Valid Key */
 196:main.c        ****         col_div = colDiv[(uint8)(idx & 0x03)]; /* Get divider for column tone */
 244              		.loc 1 196 0
 245 0020 FB7B     		ldrb	r3, [r7, #15]	@ zero_extendqisi2
 246 0022 03F00303 		and	r3, r3, #3
 247 0026 144A     		ldr	r2, .L19+4
 248 0028 D35C     		ldrb	r3, [r2, r3]
 249 002a BB73     		strb	r3, [r7, #14]
 197:main.c        ****         row_div = rowDiv[(uint8)((idx >> 2)& 0x03)];/* Get divider for row tone */
 250              		.loc 1 197 0
 251 002c 97F90F30 		ldrsb	r3, [r7, #15]
 252 0030 9B10     		asrs	r3, r3, #2
 253 0032 5BB2     		sxtb	r3, r3
 254 0034 DBB2     		uxtb	r3, r3
 255 0036 03F00303 		and	r3, r3, #3
 256 003a 104A     		ldr	r2, .L19+8
 257 003c D35C     		ldrb	r3, [r2, r3]
 258 003e 7B73     		strb	r3, [r7, #13]
 198:main.c        **** 
 199:main.c        ****         Row_Divider_WritePeriod(row_div);             /* Set both dividers  */
 259              		.loc 1 199 0
 260 0040 7B7B     		ldrb	r3, [r7, #13]	@ zero_extendqisi2
 261 0042 1846     		mov	r0, r3
 262 0044 FFF7FEFF 		bl	Row_Divider_WritePeriod
 200:main.c        ****         Col_Divider_WritePeriod(col_div);
 263              		.loc 1 200 0
 264 0048 BB7B     		ldrb	r3, [r7, #14]	@ zero_extendqisi2
 265 004a 1846     		mov	r0, r3
 266 004c FFF7FEFF 		bl	Col_Divider_WritePeriod
 201:main.c        ****         ToneClock_Start();                            /* Turn on clock */
 267              		.loc 1 201 0
 268 0050 FFF7FEFF 		bl	ToneClock_Start
 202:main.c        ****         CyDelay(TONE_DURATION_MS);                    /* Wait for the tone duration */
 269              		.loc 1 202 0
 270 0054 5020     		movs	r0, #80
 271 0056 FFF7FEFF 		bl	CyDelay
 203:main.c        ****         ToneClock_Stop();                             /* Turn off clock */
 272              		.loc 1 203 0
 273 005a FFF7FEFF 		bl	ToneClock_Stop
 204:main.c        ****         
 205:main.c        ****         UART_1_PutString("Stop tone \r\n");
 274              		.loc 1 205 0
 275 005e 0848     		ldr	r0, .L19+12
 276 0060 FFF7FEFF 		bl	UART_1_PutString
 206:main.c        ****     }
 207:main.c        ****     else /* Invalid key, just pause for set period of time. */
 208:main.c        ****     {
 209:main.c        ****         CyDelay(TONE_PAUSE_MS);
 210:main.c        ****     }
 211:main.c        **** }
 277              		.loc 1 211 0
 278 0064 02E0     		b	.L18
 279              	.L16:
 209:main.c        ****     }
 280              		.loc 1 209 0
ARM GAS  C:\Users\LUISAL~1\AppData\Local\Temp\ccNDWXIu.s 			page 10


 281 0066 6420     		movs	r0, #100
 282 0068 FFF7FEFF 		bl	CyDelay
 283              	.L18:
 284              		.loc 1 211 0
 285 006c 00BF     		nop
 286 006e 1037     		adds	r7, r7, #16
 287              		.cfi_def_cfa_offset 8
 288 0070 BD46     		mov	sp, r7
 289              		.cfi_def_cfa_register 13
 290              		@ sp needed
 291 0072 80BD     		pop	{r7, pc}
 292              	.L20:
 293              		.align	2
 294              	.L19:
 295 0074 00000000 		.word	keyCodes
 296 0078 00000000 		.word	colDiv
 297 007c 00000000 		.word	rowDiv
 298 0080 24000000 		.word	.LC2
 299              		.cfi_endproc
 300              	.LFE66:
 301              		.size	PlayTones, .-PlayTones
 302              		.section	.text.KeyIndex,"ax",%progbits
 303              		.align	2
 304              		.global	KeyIndex
 305              		.thumb
 306              		.thumb_func
 307              		.type	KeyIndex, %function
 308              	KeyIndex:
 309              	.LFB67:
 212:main.c        **** 
 213:main.c        **** /*******************************************************************************
 214:main.c        **** * Function Name: KeyIndex( )
 215:main.c        **** ********************************************************************************
 216:main.c        **** *
 217:main.c        **** * Summary:
 218:main.c        **** * This function finds the location of a character in a string and returns
 219:main.c        **** * the index. If the character is not found a -1 is returned.
 220:main.c        **** *
 221:main.c        **** * Parameters:
 222:main.c        **** * char * keyString: String to search through. This strings should be null
 223:main.c        **** * terminated and less than 255 characters in lenth.
 224:main.c        **** * char key: Character to find in "String".
 225:main.c        **** *
 226:main.c        **** * Return:
 227:main.c        **** * int8: Index of "key" in "keyString". If not found, return -1.
 228:main.c        **** *
 229:main.c        **** *******************************************************************************/
 230:main.c        **** int8 KeyIndex(char * keyString, char key)
 231:main.c        **** {
 310              		.loc 1 231 0
 311              		.cfi_startproc
 312              		@ args = 0, pretend = 0, frame = 16
 313              		@ frame_needed = 1, uses_anonymous_args = 0
 314              		@ link register save eliminated.
 315 0000 80B4     		push	{r7}
 316              		.cfi_def_cfa_offset 4
 317              		.cfi_offset 7, -4
ARM GAS  C:\Users\LUISAL~1\AppData\Local\Temp\ccNDWXIu.s 			page 11


 318 0002 85B0     		sub	sp, sp, #20
 319              		.cfi_def_cfa_offset 24
 320 0004 00AF     		add	r7, sp, #0
 321              		.cfi_def_cfa_register 7
 322 0006 7860     		str	r0, [r7, #4]
 323 0008 0B46     		mov	r3, r1
 324 000a FB70     		strb	r3, [r7, #3]
 232:main.c        ****     int8 i; /* String index */
 233:main.c        ****     int8 charLoc = -1; /* Location of character in string */
 325              		.loc 1 233 0
 326 000c FF23     		movs	r3, #255
 327 000e BB73     		strb	r3, [r7, #14]
 234:main.c        **** 
 235:main.c        ****     /* Search through string for character match */
 236:main.c        ****     for(i=0; (keyString[i] != 0); i++)
 328              		.loc 1 236 0
 329 0010 0023     		movs	r3, #0
 330 0012 FB73     		strb	r3, [r7, #15]
 331 0014 10E0     		b	.L22
 332              	.L25:
 237:main.c        ****     {
 238:main.c        ****         /* If character is found return index in string */
 239:main.c        ****         if (key == keyString[i])
 333              		.loc 1 239 0
 334 0016 97F90F30 		ldrsb	r3, [r7, #15]
 335 001a 7A68     		ldr	r2, [r7, #4]
 336 001c 1344     		add	r3, r3, r2
 337 001e 1B78     		ldrb	r3, [r3]	@ zero_extendqisi2
 338 0020 FA78     		ldrb	r2, [r7, #3]	@ zero_extendqisi2
 339 0022 9A42     		cmp	r2, r3
 340 0024 02D1     		bne	.L23
 240:main.c        ****         {
 241:main.c        ****             charLoc = i;
 341              		.loc 1 241 0
 342 0026 FB7B     		ldrb	r3, [r7, #15]
 343 0028 BB73     		strb	r3, [r7, #14]
 242:main.c        ****             break;
 344              		.loc 1 242 0
 345 002a 0CE0     		b	.L24
 346              	.L23:
 236:main.c        ****     {
 347              		.loc 1 236 0 discriminator 2
 348 002c 97F90F30 		ldrsb	r3, [r7, #15]
 349 0030 DBB2     		uxtb	r3, r3
 350 0032 0133     		adds	r3, r3, #1
 351 0034 DBB2     		uxtb	r3, r3
 352 0036 FB73     		strb	r3, [r7, #15]
 353              	.L22:
 236:main.c        ****     {
 354              		.loc 1 236 0 is_stmt 0 discriminator 1
 355 0038 97F90F30 		ldrsb	r3, [r7, #15]
 356 003c 7A68     		ldr	r2, [r7, #4]
 357 003e 1344     		add	r3, r3, r2
 358 0040 1B78     		ldrb	r3, [r3]	@ zero_extendqisi2
 359 0042 002B     		cmp	r3, #0
 360 0044 E7D1     		bne	.L25
 361              	.L24:
ARM GAS  C:\Users\LUISAL~1\AppData\Local\Temp\ccNDWXIu.s 			page 12


 243:main.c        ****         }
 244:main.c        ****     }
 245:main.c        ****     return charLoc;
 362              		.loc 1 245 0 is_stmt 1
 363 0046 97F90E30 		ldrsb	r3, [r7, #14]
 246:main.c        **** }
 364              		.loc 1 246 0
 365 004a 1846     		mov	r0, r3
 366 004c 1437     		adds	r7, r7, #20
 367              		.cfi_def_cfa_offset 4
 368 004e BD46     		mov	sp, r7
 369              		.cfi_def_cfa_register 13
 370              		@ sp needed
 371 0050 80BC     		pop	{r7}
 372              		.cfi_restore 7
 373              		.cfi_def_cfa_offset 0
 374 0052 7047     		bx	lr
 375              		.cfi_endproc
 376              	.LFE67:
 377              		.size	KeyIndex, .-KeyIndex
 378              		.text
 379              	.Letext0:
 380              		.file 2 "c:\\program files (x86)\\cypress\\psoc creator\\4.1\\psoc creator\\import\\gnu\\arm\\5.4.
 381              		.file 3 "c:\\program files (x86)\\cypress\\psoc creator\\4.1\\psoc creator\\import\\gnu\\arm\\5.4.
 382              		.file 4 "Generated_Source\\PSoC5/cytypes.h"
 383              		.file 5 "Generated_Source\\PSoC5/core_cm3.h"