ARM GAS  C:\Users\LUISAL~1\AppData\Local\Temp\ccEesRCi.s 			page 1


   1              		.syntax unified
   2              		.cpu cortex-m3
   3              		.fpu softvfp
   4              		.eabi_attribute 20, 1
   5              		.eabi_attribute 21, 1
   6              		.eabi_attribute 23, 3
   7              		.eabi_attribute 24, 1
   8              		.eabi_attribute 25, 1
   9              		.eabi_attribute 26, 1
  10              		.eabi_attribute 30, 6
  11              		.eabi_attribute 34, 1
  12              		.eabi_attribute 18, 4
  13              		.thumb
  14              		.syntax unified
  15              		.file	"Row_Tone.c"
  16              		.text
  17              	.Ltext0:
  18              		.cfi_sections	.debug_frame
  19              		.global	Row_Tone_initVar
  20              		.bss
  21              		.type	Row_Tone_initVar, %object
  22              		.size	Row_Tone_initVar, 1
  23              	Row_Tone_initVar:
  24 0000 00       		.space	1
  25              		.global	Row_Tone_wave1
  26              		.section	.rodata
  27              		.align	2
  28              		.type	Row_Tone_wave1, %object
  29              		.size	Row_Tone_wave1, 80
  30              	Row_Tone_wave1:
  31 0000 80       		.byte	-128
  32 0001 8A       		.byte	-118
  33 0002 93       		.byte	-109
  34 0003 9D       		.byte	-99
  35 0004 A7       		.byte	-89
  36 0005 B0       		.byte	-80
  37 0006 B9       		.byte	-71
  38 0007 C2       		.byte	-62
  39 0008 CA       		.byte	-54
  40 0009 D2       		.byte	-46
  41 000a DA       		.byte	-38
  42 000b E0       		.byte	-32
  43 000c E7       		.byte	-25
  44 000d EC       		.byte	-20
  45 000e F1       		.byte	-15
  46 000f F5       		.byte	-11
  47 0010 F9       		.byte	-7
  48 0011 FB       		.byte	-5
  49 0012 FD       		.byte	-3
  50 0013 FF       		.byte	-1
  51 0014 FF       		.byte	-1
  52 0015 FF       		.byte	-1
  53 0016 FD       		.byte	-3
  54 0017 FB       		.byte	-5
  55 0018 F9       		.byte	-7
  56 0019 F5       		.byte	-11
  57 001a F1       		.byte	-15
ARM GAS  C:\Users\LUISAL~1\AppData\Local\Temp\ccEesRCi.s 			page 2


  58 001b EC       		.byte	-20
  59 001c E7       		.byte	-25
  60 001d E0       		.byte	-32
  61 001e DA       		.byte	-38
  62 001f D2       		.byte	-46
  63 0020 CA       		.byte	-54
  64 0021 C2       		.byte	-62
  65 0022 B9       		.byte	-71
  66 0023 B0       		.byte	-80
  67 0024 A7       		.byte	-89
  68 0025 9D       		.byte	-99
  69 0026 93       		.byte	-109
  70 0027 8A       		.byte	-118
  71 0028 80       		.byte	-128
  72 0029 75       		.byte	117
  73 002a 6C       		.byte	108
  74 002b 62       		.byte	98
  75 002c 58       		.byte	88
  76 002d 4F       		.byte	79
  77 002e 46       		.byte	70
  78 002f 3D       		.byte	61
  79 0030 35       		.byte	53
  80 0031 2D       		.byte	45
  81 0032 25       		.byte	37
  82 0033 1F       		.byte	31
  83 0034 18       		.byte	24
  84 0035 13       		.byte	19
  85 0036 0E       		.byte	14
  86 0037 0A       		.byte	10
  87 0038 06       		.byte	6
  88 0039 04       		.byte	4
  89 003a 02       		.byte	2
  90 003b 00       		.byte	0
  91 003c 00       		.byte	0
  92 003d 00       		.byte	0
  93 003e 02       		.byte	2
  94 003f 04       		.byte	4
  95 0040 06       		.byte	6
  96 0041 0A       		.byte	10
  97 0042 0E       		.byte	14
  98 0043 13       		.byte	19
  99 0044 18       		.byte	24
 100 0045 1F       		.byte	31
 101 0046 25       		.byte	37
 102 0047 2D       		.byte	45
 103 0048 35       		.byte	53
 104 0049 3D       		.byte	61
 105 004a 46       		.byte	70
 106 004b 4F       		.byte	79
 107 004c 58       		.byte	88
 108 004d 62       		.byte	98
 109 004e 6C       		.byte	108
 110 004f 75       		.byte	117
 111              		.global	Row_Tone_wave2
 112              		.align	2
 113              		.type	Row_Tone_wave2, %object
 114              		.size	Row_Tone_wave2, 50
ARM GAS  C:\Users\LUISAL~1\AppData\Local\Temp\ccEesRCi.s 			page 3


 115              	Row_Tone_wave2:
 116 0050 80       		.byte	-128
 117 0051 8A       		.byte	-118
 118 0052 94       		.byte	-108
 119 0053 9E       		.byte	-98
 120 0054 A8       		.byte	-88
 121 0055 B2       		.byte	-78
 122 0056 BD       		.byte	-67
 123 0057 C7       		.byte	-57
 124 0058 D1       		.byte	-47
 125 0059 DB       		.byte	-37
 126 005a E6       		.byte	-26
 127 005b F0       		.byte	-16
 128 005c FA       		.byte	-6
 129 005d FA       		.byte	-6
 130 005e F0       		.byte	-16
 131 005f E6       		.byte	-26
 132 0060 DB       		.byte	-37
 133 0061 D1       		.byte	-47
 134 0062 C7       		.byte	-57
 135 0063 BD       		.byte	-67
 136 0064 B2       		.byte	-78
 137 0065 A8       		.byte	-88
 138 0066 9E       		.byte	-98
 139 0067 94       		.byte	-108
 140 0068 8A       		.byte	-118
 141 0069 80       		.byte	-128
 142 006a 75       		.byte	117
 143 006b 6B       		.byte	107
 144 006c 61       		.byte	97
 145 006d 57       		.byte	87
 146 006e 4D       		.byte	77
 147 006f 42       		.byte	66
 148 0070 38       		.byte	56
 149 0071 2E       		.byte	46
 150 0072 24       		.byte	36
 151 0073 1A       		.byte	26
 152 0074 0F       		.byte	15
 153 0075 05       		.byte	5
 154 0076 05       		.byte	5
 155 0077 0F       		.byte	15
 156 0078 1A       		.byte	26
 157 0079 24       		.byte	36
 158 007a 2E       		.byte	46
 159 007b 38       		.byte	56
 160 007c 42       		.byte	66
 161 007d 4D       		.byte	77
 162 007e 57       		.byte	87
 163 007f 61       		.byte	97
 164 0080 6B       		.byte	107
 165 0081 75       		.byte	117
 166              		.bss
 167              	Row_Tone_Wave1Chan:
 168 0001 00       		.space	1
 169              	Row_Tone_Wave2Chan:
 170 0002 00       		.space	1
 171              	Row_Tone_Wave1TD:
ARM GAS  C:\Users\LUISAL~1\AppData\Local\Temp\ccEesRCi.s 			page 4


 172 0003 00       		.space	1
 173              	Row_Tone_Wave2TD:
 174 0004 00       		.space	1
 175              		.section	.text.Row_Tone_Init,"ax",%progbits
 176              		.align	2
 177              		.global	Row_Tone_Init
 178              		.thumb
 179              		.thumb_func
 180              		.type	Row_Tone_Init, %function
 181              	Row_Tone_Init:
 182              	.LFB0:
 183              		.file 1 "Generated_Source\\PSoC5\\Row_Tone.c"
   1:Generated_Source\PSoC5/Row_Tone.c **** /*******************************************************************************
   2:Generated_Source\PSoC5/Row_Tone.c **** * File Name: Row_Tone.c
   3:Generated_Source\PSoC5/Row_Tone.c **** * Version 2.10
   4:Generated_Source\PSoC5/Row_Tone.c **** *
   5:Generated_Source\PSoC5/Row_Tone.c **** * Description:
   6:Generated_Source\PSoC5/Row_Tone.c **** *  This file provides the source code for the 8-bit Waveform DAC 
   7:Generated_Source\PSoC5/Row_Tone.c **** *  (WaveDAC8) Component.
   8:Generated_Source\PSoC5/Row_Tone.c **** *
   9:Generated_Source\PSoC5/Row_Tone.c **** ********************************************************************************
  10:Generated_Source\PSoC5/Row_Tone.c **** * Copyright 2013, Cypress Semiconductor Corporation.  All rights reserved.
  11:Generated_Source\PSoC5/Row_Tone.c **** * You may use this file only in accordance with the license, terms, conditions,
  12:Generated_Source\PSoC5/Row_Tone.c **** * disclaimers, and limitations in the end user license agreement accompanying
  13:Generated_Source\PSoC5/Row_Tone.c **** * the software package with which this file was provided.
  14:Generated_Source\PSoC5/Row_Tone.c **** *******************************************************************************/
  15:Generated_Source\PSoC5/Row_Tone.c **** 
  16:Generated_Source\PSoC5/Row_Tone.c **** #include "Row_Tone.h"
  17:Generated_Source\PSoC5/Row_Tone.c **** 
  18:Generated_Source\PSoC5/Row_Tone.c **** uint8  Row_Tone_initVar = 0u;
  19:Generated_Source\PSoC5/Row_Tone.c **** 
  20:Generated_Source\PSoC5/Row_Tone.c **** const uint8 CYCODE Row_Tone_wave1[Row_Tone_WAVE1_LENGTH] = { 128u,138u,147u,157u,167u,176u,185u,194
  21:Generated_Source\PSoC5/Row_Tone.c **** const uint8 CYCODE Row_Tone_wave2[Row_Tone_WAVE2_LENGTH] = { 128u,138u,148u,158u,168u,178u,189u,199
  22:Generated_Source\PSoC5/Row_Tone.c **** 
  23:Generated_Source\PSoC5/Row_Tone.c **** static uint8  Row_Tone_Wave1Chan;
  24:Generated_Source\PSoC5/Row_Tone.c **** static uint8  Row_Tone_Wave2Chan;
  25:Generated_Source\PSoC5/Row_Tone.c **** static uint8  Row_Tone_Wave1TD;
  26:Generated_Source\PSoC5/Row_Tone.c **** static uint8  Row_Tone_Wave2TD;
  27:Generated_Source\PSoC5/Row_Tone.c **** 
  28:Generated_Source\PSoC5/Row_Tone.c **** 
  29:Generated_Source\PSoC5/Row_Tone.c **** /*******************************************************************************
  30:Generated_Source\PSoC5/Row_Tone.c **** * Function Name: Row_Tone_Init
  31:Generated_Source\PSoC5/Row_Tone.c **** ********************************************************************************
  32:Generated_Source\PSoC5/Row_Tone.c **** *
  33:Generated_Source\PSoC5/Row_Tone.c **** * Summary:
  34:Generated_Source\PSoC5/Row_Tone.c **** *  Initializes component with parameters set in the customizer.
  35:Generated_Source\PSoC5/Row_Tone.c **** *
  36:Generated_Source\PSoC5/Row_Tone.c **** * Parameters:  
  37:Generated_Source\PSoC5/Row_Tone.c **** *  None
  38:Generated_Source\PSoC5/Row_Tone.c **** *
  39:Generated_Source\PSoC5/Row_Tone.c **** * Return: 
  40:Generated_Source\PSoC5/Row_Tone.c **** *  None
  41:Generated_Source\PSoC5/Row_Tone.c **** *
  42:Generated_Source\PSoC5/Row_Tone.c **** *******************************************************************************/
  43:Generated_Source\PSoC5/Row_Tone.c **** void Row_Tone_Init(void) 
  44:Generated_Source\PSoC5/Row_Tone.c **** {
 184              		.loc 1 44 0
ARM GAS  C:\Users\LUISAL~1\AppData\Local\Temp\ccEesRCi.s 			page 5


 185              		.cfi_startproc
 186              		@ args = 0, pretend = 0, frame = 0
 187              		@ frame_needed = 1, uses_anonymous_args = 0
 188 0000 80B5     		push	{r7, lr}
 189              		.cfi_def_cfa_offset 8
 190              		.cfi_offset 7, -8
 191              		.cfi_offset 14, -4
 192 0002 00AF     		add	r7, sp, #0
 193              		.cfi_def_cfa_register 7
  45:Generated_Source\PSoC5/Row_Tone.c **** 	Row_Tone_VDAC8_Init();
 194              		.loc 1 45 0
 195 0004 FFF7FEFF 		bl	Row_Tone_VDAC8_Init
  46:Generated_Source\PSoC5/Row_Tone.c **** 	Row_Tone_VDAC8_SetSpeed(Row_Tone_HIGHSPEED);
 196              		.loc 1 46 0
 197 0008 0220     		movs	r0, #2
 198 000a FFF7FEFF 		bl	Row_Tone_VDAC8_SetSpeed
  47:Generated_Source\PSoC5/Row_Tone.c **** 	Row_Tone_VDAC8_SetRange(Row_Tone_DAC_RANGE);
 199              		.loc 1 47 0
 200 000e 0420     		movs	r0, #4
 201 0010 FFF7FEFF 		bl	Row_Tone_VDAC8_SetRange
  48:Generated_Source\PSoC5/Row_Tone.c **** 
  49:Generated_Source\PSoC5/Row_Tone.c **** 	#if(Row_Tone_DAC_MODE == Row_Tone_CURRENT_MODE)
  50:Generated_Source\PSoC5/Row_Tone.c **** 		Row_Tone_IDAC8_SetPolarity(Row_Tone_DAC_POL);
  51:Generated_Source\PSoC5/Row_Tone.c **** 	#endif /* Row_Tone_DAC_MODE == Row_Tone_CURRENT_MODE */
  52:Generated_Source\PSoC5/Row_Tone.c **** 
  53:Generated_Source\PSoC5/Row_Tone.c **** 	#if(Row_Tone_OUT_MODE == Row_Tone_BUFFER_MODE)
  54:Generated_Source\PSoC5/Row_Tone.c **** 	   Row_Tone_BuffAmp_Init();
  55:Generated_Source\PSoC5/Row_Tone.c **** 	#endif /* Row_Tone_OUT_MODE == Row_Tone_BUFFER_MODE */
  56:Generated_Source\PSoC5/Row_Tone.c **** 
  57:Generated_Source\PSoC5/Row_Tone.c **** 	/* Get the TD Number for the DMA channel 1 and 2   */
  58:Generated_Source\PSoC5/Row_Tone.c **** 	Row_Tone_Wave1TD = CyDmaTdAllocate();
 202              		.loc 1 58 0
 203 0014 FFF7FEFF 		bl	CyDmaTdAllocate
 204 0018 0346     		mov	r3, r0
 205 001a 1A46     		mov	r2, r3
 206 001c 084B     		ldr	r3, .L2
 207 001e 1A70     		strb	r2, [r3]
  59:Generated_Source\PSoC5/Row_Tone.c **** 	Row_Tone_Wave2TD = CyDmaTdAllocate();
 208              		.loc 1 59 0
 209 0020 FFF7FEFF 		bl	CyDmaTdAllocate
 210 0024 0346     		mov	r3, r0
 211 0026 1A46     		mov	r2, r3
 212 0028 064B     		ldr	r3, .L2+4
 213 002a 1A70     		strb	r2, [r3]
  60:Generated_Source\PSoC5/Row_Tone.c **** 	
  61:Generated_Source\PSoC5/Row_Tone.c **** 	/* Initialize waveform pointers  */
  62:Generated_Source\PSoC5/Row_Tone.c **** 	Row_Tone_Wave1Setup(Row_Tone_wave1, Row_Tone_WAVE1_LENGTH) ;
 214              		.loc 1 62 0
 215 002c 5021     		movs	r1, #80
 216 002e 0648     		ldr	r0, .L2+8
 217 0030 FFF7FEFF 		bl	Row_Tone_Wave1Setup
  63:Generated_Source\PSoC5/Row_Tone.c **** 	Row_Tone_Wave2Setup(Row_Tone_wave2, Row_Tone_WAVE2_LENGTH) ;
 218              		.loc 1 63 0
 219 0034 3221     		movs	r1, #50
 220 0036 0548     		ldr	r0, .L2+12
 221 0038 FFF7FEFF 		bl	Row_Tone_Wave2Setup
  64:Generated_Source\PSoC5/Row_Tone.c **** 	
ARM GAS  C:\Users\LUISAL~1\AppData\Local\Temp\ccEesRCi.s 			page 6


  65:Generated_Source\PSoC5/Row_Tone.c **** 	/* Initialize the internal clock if one present  */
  66:Generated_Source\PSoC5/Row_Tone.c **** 	#if defined(Row_Tone_DacClk_PHASE)
  67:Generated_Source\PSoC5/Row_Tone.c **** 	   Row_Tone_DacClk_SetPhase(Row_Tone_CLK_PHASE_0nS);
  68:Generated_Source\PSoC5/Row_Tone.c **** 	#endif /* defined(Row_Tone_DacClk_PHASE) */
  69:Generated_Source\PSoC5/Row_Tone.c **** }
 222              		.loc 1 69 0
 223 003c 00BF     		nop
 224 003e 80BD     		pop	{r7, pc}
 225              	.L3:
 226              		.align	2
 227              	.L2:
 228 0040 03000000 		.word	Row_Tone_Wave1TD
 229 0044 04000000 		.word	Row_Tone_Wave2TD
 230 0048 00000000 		.word	Row_Tone_wave1
 231 004c 00000000 		.word	Row_Tone_wave2
 232              		.cfi_endproc
 233              	.LFE0:
 234              		.size	Row_Tone_Init, .-Row_Tone_Init
 235              		.section	.text.Row_Tone_Enable,"ax",%progbits
 236              		.align	2
 237              		.global	Row_Tone_Enable
 238              		.thumb
 239              		.thumb_func
 240              		.type	Row_Tone_Enable, %function
 241              	Row_Tone_Enable:
 242              	.LFB1:
  70:Generated_Source\PSoC5/Row_Tone.c **** 
  71:Generated_Source\PSoC5/Row_Tone.c **** 
  72:Generated_Source\PSoC5/Row_Tone.c **** /*******************************************************************************
  73:Generated_Source\PSoC5/Row_Tone.c **** * Function Name: Row_Tone_Enable
  74:Generated_Source\PSoC5/Row_Tone.c **** ********************************************************************************
  75:Generated_Source\PSoC5/Row_Tone.c **** *  
  76:Generated_Source\PSoC5/Row_Tone.c **** * Summary: 
  77:Generated_Source\PSoC5/Row_Tone.c **** *  Enables the DAC block and DMA operation.
  78:Generated_Source\PSoC5/Row_Tone.c **** *
  79:Generated_Source\PSoC5/Row_Tone.c **** * Parameters:  
  80:Generated_Source\PSoC5/Row_Tone.c **** *  None
  81:Generated_Source\PSoC5/Row_Tone.c **** *
  82:Generated_Source\PSoC5/Row_Tone.c **** * Return: 
  83:Generated_Source\PSoC5/Row_Tone.c **** *  None
  84:Generated_Source\PSoC5/Row_Tone.c **** *
  85:Generated_Source\PSoC5/Row_Tone.c **** *******************************************************************************/
  86:Generated_Source\PSoC5/Row_Tone.c **** void Row_Tone_Enable(void) 
  87:Generated_Source\PSoC5/Row_Tone.c **** {
 243              		.loc 1 87 0
 244              		.cfi_startproc
 245              		@ args = 0, pretend = 0, frame = 0
 246              		@ frame_needed = 1, uses_anonymous_args = 0
 247 0000 80B5     		push	{r7, lr}
 248              		.cfi_def_cfa_offset 8
 249              		.cfi_offset 7, -8
 250              		.cfi_offset 14, -4
 251 0002 00AF     		add	r7, sp, #0
 252              		.cfi_def_cfa_register 7
  88:Generated_Source\PSoC5/Row_Tone.c **** 	Row_Tone_VDAC8_Enable();
 253              		.loc 1 88 0
 254 0004 FFF7FEFF 		bl	Row_Tone_VDAC8_Enable
ARM GAS  C:\Users\LUISAL~1\AppData\Local\Temp\ccEesRCi.s 			page 7


  89:Generated_Source\PSoC5/Row_Tone.c **** 
  90:Generated_Source\PSoC5/Row_Tone.c **** 	#if(Row_Tone_OUT_MODE == Row_Tone_BUFFER_MODE)
  91:Generated_Source\PSoC5/Row_Tone.c **** 	   Row_Tone_BuffAmp_Enable();
  92:Generated_Source\PSoC5/Row_Tone.c **** 	#endif /* Row_Tone_OUT_MODE == Row_Tone_BUFFER_MODE */
  93:Generated_Source\PSoC5/Row_Tone.c **** 
  94:Generated_Source\PSoC5/Row_Tone.c **** 	/* 
  95:Generated_Source\PSoC5/Row_Tone.c **** 	* Enable the channel. It is configured to remember the TD value so that
  96:Generated_Source\PSoC5/Row_Tone.c **** 	* it can be restored from the place where it has been stopped.
  97:Generated_Source\PSoC5/Row_Tone.c **** 	*/
  98:Generated_Source\PSoC5/Row_Tone.c **** 	(void)CyDmaChEnable(Row_Tone_Wave1Chan, 1u);
 255              		.loc 1 98 0
 256 0008 084B     		ldr	r3, .L5
 257 000a 1B78     		ldrb	r3, [r3]	@ zero_extendqisi2
 258 000c 0121     		movs	r1, #1
 259 000e 1846     		mov	r0, r3
 260 0010 FFF7FEFF 		bl	CyDmaChEnable
  99:Generated_Source\PSoC5/Row_Tone.c **** 	(void)CyDmaChEnable(Row_Tone_Wave2Chan, 1u);
 261              		.loc 1 99 0
 262 0014 064B     		ldr	r3, .L5+4
 263 0016 1B78     		ldrb	r3, [r3]	@ zero_extendqisi2
 264 0018 0121     		movs	r1, #1
 265 001a 1846     		mov	r0, r3
 266 001c FFF7FEFF 		bl	CyDmaChEnable
 100:Generated_Source\PSoC5/Row_Tone.c **** 	
 101:Generated_Source\PSoC5/Row_Tone.c **** 	/* set the initial value */
 102:Generated_Source\PSoC5/Row_Tone.c **** 	Row_Tone_SetValue(0u);
 267              		.loc 1 102 0
 268 0020 0020     		movs	r0, #0
 269 0022 FFF7FEFF 		bl	Row_Tone_VDAC8_SetValue
 103:Generated_Source\PSoC5/Row_Tone.c **** 	
 104:Generated_Source\PSoC5/Row_Tone.c **** 	#if(Row_Tone_CLOCK_SRC == Row_Tone_CLOCK_INT)  	
 105:Generated_Source\PSoC5/Row_Tone.c **** 	   Row_Tone_DacClk_Start();
 106:Generated_Source\PSoC5/Row_Tone.c **** 	#endif /* Row_Tone_CLOCK_SRC == Row_Tone_CLOCK_INT */
 107:Generated_Source\PSoC5/Row_Tone.c **** }
 270              		.loc 1 107 0
 271 0026 00BF     		nop
 272 0028 80BD     		pop	{r7, pc}
 273              	.L6:
 274 002a 00BF     		.align	2
 275              	.L5:
 276 002c 01000000 		.word	Row_Tone_Wave1Chan
 277 0030 02000000 		.word	Row_Tone_Wave2Chan
 278              		.cfi_endproc
 279              	.LFE1:
 280              		.size	Row_Tone_Enable, .-Row_Tone_Enable
 281              		.section	.text.Row_Tone_Start,"ax",%progbits
 282              		.align	2
 283              		.global	Row_Tone_Start
 284              		.thumb
 285              		.thumb_func
 286              		.type	Row_Tone_Start, %function
 287              	Row_Tone_Start:
 288              	.LFB2:
 108:Generated_Source\PSoC5/Row_Tone.c **** 
 109:Generated_Source\PSoC5/Row_Tone.c **** 
 110:Generated_Source\PSoC5/Row_Tone.c **** /*******************************************************************************
 111:Generated_Source\PSoC5/Row_Tone.c **** * Function Name: Row_Tone_Start
ARM GAS  C:\Users\LUISAL~1\AppData\Local\Temp\ccEesRCi.s 			page 8


 112:Generated_Source\PSoC5/Row_Tone.c **** ********************************************************************************
 113:Generated_Source\PSoC5/Row_Tone.c **** *
 114:Generated_Source\PSoC5/Row_Tone.c **** * Summary:
 115:Generated_Source\PSoC5/Row_Tone.c **** *  The start function initializes the voltage DAC with the default values, 
 116:Generated_Source\PSoC5/Row_Tone.c **** *  and sets the power to the given level.  A power level of 0, is the same as 
 117:Generated_Source\PSoC5/Row_Tone.c **** *  executing the stop function.
 118:Generated_Source\PSoC5/Row_Tone.c **** *
 119:Generated_Source\PSoC5/Row_Tone.c **** * Parameters:  
 120:Generated_Source\PSoC5/Row_Tone.c **** *  None
 121:Generated_Source\PSoC5/Row_Tone.c **** *
 122:Generated_Source\PSoC5/Row_Tone.c **** * Return: 
 123:Generated_Source\PSoC5/Row_Tone.c **** *  None
 124:Generated_Source\PSoC5/Row_Tone.c **** *
 125:Generated_Source\PSoC5/Row_Tone.c **** * Reentrant:
 126:Generated_Source\PSoC5/Row_Tone.c **** *  No
 127:Generated_Source\PSoC5/Row_Tone.c **** *
 128:Generated_Source\PSoC5/Row_Tone.c **** *******************************************************************************/
 129:Generated_Source\PSoC5/Row_Tone.c **** void Row_Tone_Start(void) 
 130:Generated_Source\PSoC5/Row_Tone.c **** {
 289              		.loc 1 130 0
 290              		.cfi_startproc
 291              		@ args = 0, pretend = 0, frame = 0
 292              		@ frame_needed = 1, uses_anonymous_args = 0
 293 0000 80B5     		push	{r7, lr}
 294              		.cfi_def_cfa_offset 8
 295              		.cfi_offset 7, -8
 296              		.cfi_offset 14, -4
 297 0002 00AF     		add	r7, sp, #0
 298              		.cfi_def_cfa_register 7
 131:Generated_Source\PSoC5/Row_Tone.c **** 	/* If not Initialized then initialize all required hardware and software */
 132:Generated_Source\PSoC5/Row_Tone.c **** 	if(Row_Tone_initVar == 0u)
 299              		.loc 1 132 0
 300 0004 064B     		ldr	r3, .L9
 301 0006 1B78     		ldrb	r3, [r3]	@ zero_extendqisi2
 302 0008 002B     		cmp	r3, #0
 303 000a 04D1     		bne	.L8
 133:Generated_Source\PSoC5/Row_Tone.c **** 	{
 134:Generated_Source\PSoC5/Row_Tone.c **** 		Row_Tone_Init();
 304              		.loc 1 134 0
 305 000c FFF7FEFF 		bl	Row_Tone_Init
 135:Generated_Source\PSoC5/Row_Tone.c **** 		Row_Tone_initVar = 1u;
 306              		.loc 1 135 0
 307 0010 034B     		ldr	r3, .L9
 308 0012 0122     		movs	r2, #1
 309 0014 1A70     		strb	r2, [r3]
 310              	.L8:
 136:Generated_Source\PSoC5/Row_Tone.c **** 	}
 137:Generated_Source\PSoC5/Row_Tone.c **** 	
 138:Generated_Source\PSoC5/Row_Tone.c **** 	Row_Tone_Enable();
 311              		.loc 1 138 0
 312 0016 FFF7FEFF 		bl	Row_Tone_Enable
 139:Generated_Source\PSoC5/Row_Tone.c **** }
 313              		.loc 1 139 0
 314 001a 00BF     		nop
 315 001c 80BD     		pop	{r7, pc}
 316              	.L10:
 317 001e 00BF     		.align	2
ARM GAS  C:\Users\LUISAL~1\AppData\Local\Temp\ccEesRCi.s 			page 9


 318              	.L9:
 319 0020 00000000 		.word	Row_Tone_initVar
 320              		.cfi_endproc
 321              	.LFE2:
 322              		.size	Row_Tone_Start, .-Row_Tone_Start
 323              		.section	.text.Row_Tone_StartEx,"ax",%progbits
 324              		.align	2
 325              		.global	Row_Tone_StartEx
 326              		.thumb
 327              		.thumb_func
 328              		.type	Row_Tone_StartEx, %function
 329              	Row_Tone_StartEx:
 330              	.LFB3:
 140:Generated_Source\PSoC5/Row_Tone.c **** 
 141:Generated_Source\PSoC5/Row_Tone.c **** 
 142:Generated_Source\PSoC5/Row_Tone.c **** /*******************************************************************************
 143:Generated_Source\PSoC5/Row_Tone.c **** * Function Name: Row_Tone_StartEx
 144:Generated_Source\PSoC5/Row_Tone.c **** ********************************************************************************
 145:Generated_Source\PSoC5/Row_Tone.c **** *
 146:Generated_Source\PSoC5/Row_Tone.c **** * Summary:
 147:Generated_Source\PSoC5/Row_Tone.c **** *  The StartEx function sets pointers and sizes for both waveforms
 148:Generated_Source\PSoC5/Row_Tone.c **** *  and then starts the component.
 149:Generated_Source\PSoC5/Row_Tone.c **** *
 150:Generated_Source\PSoC5/Row_Tone.c **** * Parameters:  
 151:Generated_Source\PSoC5/Row_Tone.c **** *   uint8 * wavePtr1:     Pointer to the waveform 1 array.
 152:Generated_Source\PSoC5/Row_Tone.c **** *   uint16  sampleSize1:  The amount of samples in the waveform 1.
 153:Generated_Source\PSoC5/Row_Tone.c **** *   uint8 * wavePtr2:     Pointer to the waveform 2 array.
 154:Generated_Source\PSoC5/Row_Tone.c **** *   uint16  sampleSize2:  The amount of samples in the waveform 2.
 155:Generated_Source\PSoC5/Row_Tone.c **** *
 156:Generated_Source\PSoC5/Row_Tone.c **** * Return: 
 157:Generated_Source\PSoC5/Row_Tone.c **** *  None
 158:Generated_Source\PSoC5/Row_Tone.c **** *
 159:Generated_Source\PSoC5/Row_Tone.c **** * Reentrant:
 160:Generated_Source\PSoC5/Row_Tone.c **** *  No
 161:Generated_Source\PSoC5/Row_Tone.c **** *
 162:Generated_Source\PSoC5/Row_Tone.c **** *******************************************************************************/
 163:Generated_Source\PSoC5/Row_Tone.c **** void Row_Tone_StartEx(const uint8 * wavePtr1, uint16 sampleSize1, const uint8 * wavePtr2, uint16 sa
 164:Generated_Source\PSoC5/Row_Tone.c **** 
 165:Generated_Source\PSoC5/Row_Tone.c **** {
 331              		.loc 1 165 0
 332              		.cfi_startproc
 333              		@ args = 0, pretend = 0, frame = 16
 334              		@ frame_needed = 1, uses_anonymous_args = 0
 335 0000 80B5     		push	{r7, lr}
 336              		.cfi_def_cfa_offset 8
 337              		.cfi_offset 7, -8
 338              		.cfi_offset 14, -4
 339 0002 84B0     		sub	sp, sp, #16
 340              		.cfi_def_cfa_offset 24
 341 0004 00AF     		add	r7, sp, #0
 342              		.cfi_def_cfa_register 7
 343 0006 F860     		str	r0, [r7, #12]
 344 0008 7A60     		str	r2, [r7, #4]
 345 000a 1A46     		mov	r2, r3
 346 000c 0B46     		mov	r3, r1	@ movhi
 347 000e 7B81     		strh	r3, [r7, #10]	@ movhi
 348 0010 1346     		mov	r3, r2	@ movhi
ARM GAS  C:\Users\LUISAL~1\AppData\Local\Temp\ccEesRCi.s 			page 10


 349 0012 3B81     		strh	r3, [r7, #8]	@ movhi
 166:Generated_Source\PSoC5/Row_Tone.c **** 	Row_Tone_Wave1Setup(wavePtr1, sampleSize1);
 350              		.loc 1 166 0
 351 0014 7B89     		ldrh	r3, [r7, #10]
 352 0016 1946     		mov	r1, r3
 353 0018 F868     		ldr	r0, [r7, #12]
 354 001a FFF7FEFF 		bl	Row_Tone_Wave1Setup
 167:Generated_Source\PSoC5/Row_Tone.c **** 	Row_Tone_Wave2Setup(wavePtr2, sampleSize2);
 355              		.loc 1 167 0
 356 001e 3B89     		ldrh	r3, [r7, #8]
 357 0020 1946     		mov	r1, r3
 358 0022 7868     		ldr	r0, [r7, #4]
 359 0024 FFF7FEFF 		bl	Row_Tone_Wave2Setup
 168:Generated_Source\PSoC5/Row_Tone.c **** 	Row_Tone_Start();
 360              		.loc 1 168 0
 361 0028 FFF7FEFF 		bl	Row_Tone_Start
 169:Generated_Source\PSoC5/Row_Tone.c **** }
 362              		.loc 1 169 0
 363 002c 00BF     		nop
 364 002e 1037     		adds	r7, r7, #16
 365              		.cfi_def_cfa_offset 8
 366 0030 BD46     		mov	sp, r7
 367              		.cfi_def_cfa_register 13
 368              		@ sp needed
 369 0032 80BD     		pop	{r7, pc}
 370              		.cfi_endproc
 371              	.LFE3:
 372              		.size	Row_Tone_StartEx, .-Row_Tone_StartEx
 373              		.section	.text.Row_Tone_Stop,"ax",%progbits
 374              		.align	2
 375              		.global	Row_Tone_Stop
 376              		.thumb
 377              		.thumb_func
 378              		.type	Row_Tone_Stop, %function
 379              	Row_Tone_Stop:
 380              	.LFB4:
 170:Generated_Source\PSoC5/Row_Tone.c **** 
 171:Generated_Source\PSoC5/Row_Tone.c **** 
 172:Generated_Source\PSoC5/Row_Tone.c **** /*******************************************************************************
 173:Generated_Source\PSoC5/Row_Tone.c **** * Function Name: Row_Tone_Stop
 174:Generated_Source\PSoC5/Row_Tone.c **** ********************************************************************************
 175:Generated_Source\PSoC5/Row_Tone.c **** *
 176:Generated_Source\PSoC5/Row_Tone.c **** * Summary:
 177:Generated_Source\PSoC5/Row_Tone.c **** *  Stops the clock (if internal), disables the DMA channels
 178:Generated_Source\PSoC5/Row_Tone.c **** *  and powers down the DAC.
 179:Generated_Source\PSoC5/Row_Tone.c **** *
 180:Generated_Source\PSoC5/Row_Tone.c **** * Parameters:  
 181:Generated_Source\PSoC5/Row_Tone.c **** *  None  
 182:Generated_Source\PSoC5/Row_Tone.c **** *
 183:Generated_Source\PSoC5/Row_Tone.c **** * Return: 
 184:Generated_Source\PSoC5/Row_Tone.c **** *  None
 185:Generated_Source\PSoC5/Row_Tone.c **** *
 186:Generated_Source\PSoC5/Row_Tone.c **** *******************************************************************************/
 187:Generated_Source\PSoC5/Row_Tone.c **** void Row_Tone_Stop(void) 
 188:Generated_Source\PSoC5/Row_Tone.c **** {
 381              		.loc 1 188 0
 382              		.cfi_startproc
ARM GAS  C:\Users\LUISAL~1\AppData\Local\Temp\ccEesRCi.s 			page 11


 383              		@ args = 0, pretend = 0, frame = 0
 384              		@ frame_needed = 1, uses_anonymous_args = 0
 385 0000 80B5     		push	{r7, lr}
 386              		.cfi_def_cfa_offset 8
 387              		.cfi_offset 7, -8
 388              		.cfi_offset 14, -4
 389 0002 00AF     		add	r7, sp, #0
 390              		.cfi_def_cfa_register 7
 189:Generated_Source\PSoC5/Row_Tone.c **** 	/* Turn off internal clock, if one present */
 190:Generated_Source\PSoC5/Row_Tone.c **** 	#if(Row_Tone_CLOCK_SRC == Row_Tone_CLOCK_INT)  	
 191:Generated_Source\PSoC5/Row_Tone.c **** 	   Row_Tone_DacClk_Stop();
 192:Generated_Source\PSoC5/Row_Tone.c **** 	#endif /* Row_Tone_CLOCK_SRC == Row_Tone_CLOCK_INT */
 193:Generated_Source\PSoC5/Row_Tone.c **** 	
 194:Generated_Source\PSoC5/Row_Tone.c **** 	/* Disble DMA channels */
 195:Generated_Source\PSoC5/Row_Tone.c **** 	(void)CyDmaChDisable(Row_Tone_Wave1Chan);
 391              		.loc 1 195 0
 392 0004 064B     		ldr	r3, .L13
 393 0006 1B78     		ldrb	r3, [r3]	@ zero_extendqisi2
 394 0008 1846     		mov	r0, r3
 395 000a FFF7FEFF 		bl	CyDmaChDisable
 196:Generated_Source\PSoC5/Row_Tone.c **** 	(void)CyDmaChDisable(Row_Tone_Wave2Chan);
 396              		.loc 1 196 0
 397 000e 054B     		ldr	r3, .L13+4
 398 0010 1B78     		ldrb	r3, [r3]	@ zero_extendqisi2
 399 0012 1846     		mov	r0, r3
 400 0014 FFF7FEFF 		bl	CyDmaChDisable
 197:Generated_Source\PSoC5/Row_Tone.c **** 
 198:Generated_Source\PSoC5/Row_Tone.c **** 	/* Disable power to DAC */
 199:Generated_Source\PSoC5/Row_Tone.c **** 	Row_Tone_VDAC8_Stop();
 401              		.loc 1 199 0
 402 0018 FFF7FEFF 		bl	Row_Tone_VDAC8_Stop
 200:Generated_Source\PSoC5/Row_Tone.c **** }
 403              		.loc 1 200 0
 404 001c 00BF     		nop
 405 001e 80BD     		pop	{r7, pc}
 406              	.L14:
 407              		.align	2
 408              	.L13:
 409 0020 01000000 		.word	Row_Tone_Wave1Chan
 410 0024 02000000 		.word	Row_Tone_Wave2Chan
 411              		.cfi_endproc
 412              	.LFE4:
 413              		.size	Row_Tone_Stop, .-Row_Tone_Stop
 414              		.section	.text.Row_Tone_Wave1Setup,"ax",%progbits
 415              		.align	2
 416              		.global	Row_Tone_Wave1Setup
 417              		.thumb
 418              		.thumb_func
 419              		.type	Row_Tone_Wave1Setup, %function
 420              	Row_Tone_Wave1Setup:
 421              	.LFB5:
 201:Generated_Source\PSoC5/Row_Tone.c **** 
 202:Generated_Source\PSoC5/Row_Tone.c **** 
 203:Generated_Source\PSoC5/Row_Tone.c **** /*******************************************************************************
 204:Generated_Source\PSoC5/Row_Tone.c **** * Function Name: Row_Tone_Wave1Setup
 205:Generated_Source\PSoC5/Row_Tone.c **** ********************************************************************************
 206:Generated_Source\PSoC5/Row_Tone.c **** *
ARM GAS  C:\Users\LUISAL~1\AppData\Local\Temp\ccEesRCi.s 			page 12


 207:Generated_Source\PSoC5/Row_Tone.c **** * Summary:
 208:Generated_Source\PSoC5/Row_Tone.c **** *  Sets pointer and size for waveform 1.                                    
 209:Generated_Source\PSoC5/Row_Tone.c **** *
 210:Generated_Source\PSoC5/Row_Tone.c **** * Parameters:  
 211:Generated_Source\PSoC5/Row_Tone.c **** *  uint8 * WavePtr:     Pointer to the waveform array.
 212:Generated_Source\PSoC5/Row_Tone.c **** *  uint16  SampleSize:  The amount of samples in the waveform.
 213:Generated_Source\PSoC5/Row_Tone.c **** *
 214:Generated_Source\PSoC5/Row_Tone.c **** * Return: 
 215:Generated_Source\PSoC5/Row_Tone.c **** *  None 
 216:Generated_Source\PSoC5/Row_Tone.c **** *
 217:Generated_Source\PSoC5/Row_Tone.c **** *******************************************************************************/
 218:Generated_Source\PSoC5/Row_Tone.c **** void Row_Tone_Wave1Setup(const uint8 * wavePtr, uint16 sampleSize)
 219:Generated_Source\PSoC5/Row_Tone.c **** 
 220:Generated_Source\PSoC5/Row_Tone.c **** {
 422              		.loc 1 220 0
 423              		.cfi_startproc
 424              		@ args = 0, pretend = 0, frame = 8
 425              		@ frame_needed = 1, uses_anonymous_args = 0
 426 0000 80B5     		push	{r7, lr}
 427              		.cfi_def_cfa_offset 8
 428              		.cfi_offset 7, -8
 429              		.cfi_offset 14, -4
 430 0002 82B0     		sub	sp, sp, #8
 431              		.cfi_def_cfa_offset 16
 432 0004 00AF     		add	r7, sp, #0
 433              		.cfi_def_cfa_register 7
 434 0006 7860     		str	r0, [r7, #4]
 435 0008 0B46     		mov	r3, r1
 436 000a 7B80     		strh	r3, [r7, #2]	@ movhi
 221:Generated_Source\PSoC5/Row_Tone.c **** 	#if (CY_PSOC3)
 222:Generated_Source\PSoC5/Row_Tone.c **** 		uint16 memoryType; /* determining the source memory type */
 223:Generated_Source\PSoC5/Row_Tone.c **** 		memoryType = (Row_Tone_HI16FLASHPTR == HI16(wavePtr)) ? HI16(CYDEV_FLS_BASE) : HI16(CYDEV_SRAM_BA
 224:Generated_Source\PSoC5/Row_Tone.c **** 		
 225:Generated_Source\PSoC5/Row_Tone.c **** 		Row_Tone_Wave1Chan = Row_Tone_Wave1_DMA_DmaInitialize(
 226:Generated_Source\PSoC5/Row_Tone.c **** 		Row_Tone_Wave1_DMA_BYTES_PER_BURST, Row_Tone_Wave1_DMA_REQUEST_PER_BURST,
 227:Generated_Source\PSoC5/Row_Tone.c **** 		memoryType, HI16(CYDEV_PERIPH_BASE));
 228:Generated_Source\PSoC5/Row_Tone.c **** 	#else /* PSoC 5 */
 229:Generated_Source\PSoC5/Row_Tone.c **** 		Row_Tone_Wave1Chan = Row_Tone_Wave1_DMA_DmaInitialize(
 230:Generated_Source\PSoC5/Row_Tone.c **** 		Row_Tone_Wave1_DMA_BYTES_PER_BURST, Row_Tone_Wave1_DMA_REQUEST_PER_BURST,
 231:Generated_Source\PSoC5/Row_Tone.c **** 		HI16(wavePtr), HI16(Row_Tone_DAC8__D));
 437              		.loc 1 231 0
 438 000c 7B68     		ldr	r3, [r7, #4]
 439 000e 1B0C     		lsrs	r3, r3, #16
 229:Generated_Source\PSoC5/Row_Tone.c **** 		Row_Tone_Wave1_DMA_BYTES_PER_BURST, Row_Tone_Wave1_DMA_REQUEST_PER_BURST,
 440              		.loc 1 229 0
 441 0010 9AB2     		uxth	r2, r3
 442 0012 4FF48043 		mov	r3, #16384
 443 0016 0121     		movs	r1, #1
 444 0018 0120     		movs	r0, #1
 445 001a FFF7FEFF 		bl	Row_Tone_Wave1_DMA_DmaInitialize
 446 001e 0346     		mov	r3, r0
 447 0020 1A46     		mov	r2, r3
 448 0022 0F4B     		ldr	r3, .L16
 449 0024 1A70     		strb	r2, [r3]
 232:Generated_Source\PSoC5/Row_Tone.c **** 	#endif /* CY_PSOC3 */
 233:Generated_Source\PSoC5/Row_Tone.c **** 	
 234:Generated_Source\PSoC5/Row_Tone.c **** 	/*
ARM GAS  C:\Users\LUISAL~1\AppData\Local\Temp\ccEesRCi.s 			page 13


 235:Generated_Source\PSoC5/Row_Tone.c **** 	* TD is looping on itself. 
 236:Generated_Source\PSoC5/Row_Tone.c ****     * Increment the source address, but not the destination address. 
 237:Generated_Source\PSoC5/Row_Tone.c **** 	*/
 238:Generated_Source\PSoC5/Row_Tone.c **** 	(void)CyDmaTdSetConfiguration(Row_Tone_Wave1TD, sampleSize, Row_Tone_Wave1TD, 
 450              		.loc 1 238 0
 451 0026 0F4B     		ldr	r3, .L16+4
 452 0028 1878     		ldrb	r0, [r3]	@ zero_extendqisi2
 453 002a 0E4B     		ldr	r3, .L16+4
 454 002c 1A78     		ldrb	r2, [r3]	@ zero_extendqisi2
 455 002e 7988     		ldrh	r1, [r7, #2]
 456 0030 0123     		movs	r3, #1
 457 0032 FFF7FEFF 		bl	CyDmaTdSetConfiguration
 239:Generated_Source\PSoC5/Row_Tone.c ****                                     (uint8)CY_DMA_TD_INC_SRC_ADR | (uint8)Row_Tone_Wave1_DMA__TD_TE
 240:Generated_Source\PSoC5/Row_Tone.c **** 	
 241:Generated_Source\PSoC5/Row_Tone.c **** 	/* Set the TD source and destination address */
 242:Generated_Source\PSoC5/Row_Tone.c **** 	(void)CyDmaTdSetAddress(Row_Tone_Wave1TD, LO16((uint32)wavePtr), LO16(Row_Tone_DAC8__D));
 458              		.loc 1 242 0
 459 0036 0B4B     		ldr	r3, .L16+4
 460 0038 1B78     		ldrb	r3, [r3]	@ zero_extendqisi2
 461 003a 7A68     		ldr	r2, [r7, #4]
 462 003c 91B2     		uxth	r1, r2
 463 003e 45F68332 		movw	r2, #23427
 464 0042 1846     		mov	r0, r3
 465 0044 FFF7FEFF 		bl	CyDmaTdSetAddress
 243:Generated_Source\PSoC5/Row_Tone.c **** 	
 244:Generated_Source\PSoC5/Row_Tone.c **** 	/* Associate the TD with the channel */
 245:Generated_Source\PSoC5/Row_Tone.c **** 	(void)CyDmaChSetInitialTd(Row_Tone_Wave1Chan, Row_Tone_Wave1TD);
 466              		.loc 1 245 0
 467 0048 054B     		ldr	r3, .L16
 468 004a 1A78     		ldrb	r2, [r3]	@ zero_extendqisi2
 469 004c 054B     		ldr	r3, .L16+4
 470 004e 1B78     		ldrb	r3, [r3]	@ zero_extendqisi2
 471 0050 1946     		mov	r1, r3
 472 0052 1046     		mov	r0, r2
 473 0054 FFF7FEFF 		bl	CyDmaChSetInitialTd
 246:Generated_Source\PSoC5/Row_Tone.c **** }
 474              		.loc 1 246 0
 475 0058 00BF     		nop
 476 005a 0837     		adds	r7, r7, #8
 477              		.cfi_def_cfa_offset 8
 478 005c BD46     		mov	sp, r7
 479              		.cfi_def_cfa_register 13
 480              		@ sp needed
 481 005e 80BD     		pop	{r7, pc}
 482              	.L17:
 483              		.align	2
 484              	.L16:
 485 0060 01000000 		.word	Row_Tone_Wave1Chan
 486 0064 03000000 		.word	Row_Tone_Wave1TD
 487              		.cfi_endproc
 488              	.LFE5:
 489              		.size	Row_Tone_Wave1Setup, .-Row_Tone_Wave1Setup
 490              		.section	.text.Row_Tone_Wave2Setup,"ax",%progbits
 491              		.align	2
 492              		.global	Row_Tone_Wave2Setup
 493              		.thumb
 494              		.thumb_func
ARM GAS  C:\Users\LUISAL~1\AppData\Local\Temp\ccEesRCi.s 			page 14


 495              		.type	Row_Tone_Wave2Setup, %function
 496              	Row_Tone_Wave2Setup:
 497              	.LFB6:
 247:Generated_Source\PSoC5/Row_Tone.c **** 
 248:Generated_Source\PSoC5/Row_Tone.c **** 
 249:Generated_Source\PSoC5/Row_Tone.c **** /*******************************************************************************
 250:Generated_Source\PSoC5/Row_Tone.c **** * Function Name: Row_Tone_Wave2Setup
 251:Generated_Source\PSoC5/Row_Tone.c **** ********************************************************************************
 252:Generated_Source\PSoC5/Row_Tone.c **** *
 253:Generated_Source\PSoC5/Row_Tone.c **** * Summary:
 254:Generated_Source\PSoC5/Row_Tone.c **** *  Sets pointer and size for waveform 2.                                    
 255:Generated_Source\PSoC5/Row_Tone.c **** *
 256:Generated_Source\PSoC5/Row_Tone.c **** * Parameters:  
 257:Generated_Source\PSoC5/Row_Tone.c **** *  uint8 * WavePtr:     Pointer to the waveform array.
 258:Generated_Source\PSoC5/Row_Tone.c **** *  uint16  SampleSize:  The amount of samples in the waveform.
 259:Generated_Source\PSoC5/Row_Tone.c **** *
 260:Generated_Source\PSoC5/Row_Tone.c **** * Return: 
 261:Generated_Source\PSoC5/Row_Tone.c **** *  None
 262:Generated_Source\PSoC5/Row_Tone.c **** *
 263:Generated_Source\PSoC5/Row_Tone.c **** *******************************************************************************/
 264:Generated_Source\PSoC5/Row_Tone.c **** void Row_Tone_Wave2Setup(const uint8 * wavePtr, uint16 sampleSize)
 265:Generated_Source\PSoC5/Row_Tone.c ****  
 266:Generated_Source\PSoC5/Row_Tone.c **** {
 498              		.loc 1 266 0
 499              		.cfi_startproc
 500              		@ args = 0, pretend = 0, frame = 8
 501              		@ frame_needed = 1, uses_anonymous_args = 0
 502 0000 80B5     		push	{r7, lr}
 503              		.cfi_def_cfa_offset 8
 504              		.cfi_offset 7, -8
 505              		.cfi_offset 14, -4
 506 0002 82B0     		sub	sp, sp, #8
 507              		.cfi_def_cfa_offset 16
 508 0004 00AF     		add	r7, sp, #0
 509              		.cfi_def_cfa_register 7
 510 0006 7860     		str	r0, [r7, #4]
 511 0008 0B46     		mov	r3, r1
 512 000a 7B80     		strh	r3, [r7, #2]	@ movhi
 267:Generated_Source\PSoC5/Row_Tone.c **** 	#if (CY_PSOC3)
 268:Generated_Source\PSoC5/Row_Tone.c **** 		uint16 memoryType; /* determining the source memory type */
 269:Generated_Source\PSoC5/Row_Tone.c **** 		memoryType = (Row_Tone_HI16FLASHPTR == HI16(wavePtr)) ? HI16(CYDEV_FLS_BASE) : HI16(CYDEV_SRAM_BA
 270:Generated_Source\PSoC5/Row_Tone.c **** 			
 271:Generated_Source\PSoC5/Row_Tone.c **** 		Row_Tone_Wave2Chan = Row_Tone_Wave2_DMA_DmaInitialize(
 272:Generated_Source\PSoC5/Row_Tone.c **** 		Row_Tone_Wave2_DMA_BYTES_PER_BURST, Row_Tone_Wave2_DMA_REQUEST_PER_BURST,
 273:Generated_Source\PSoC5/Row_Tone.c **** 		memoryType, HI16(CYDEV_PERIPH_BASE));
 274:Generated_Source\PSoC5/Row_Tone.c **** 	#else /* PSoC 5 */
 275:Generated_Source\PSoC5/Row_Tone.c **** 		Row_Tone_Wave2Chan = Row_Tone_Wave2_DMA_DmaInitialize(
 276:Generated_Source\PSoC5/Row_Tone.c **** 		Row_Tone_Wave2_DMA_BYTES_PER_BURST, Row_Tone_Wave2_DMA_REQUEST_PER_BURST,
 277:Generated_Source\PSoC5/Row_Tone.c **** 		HI16(wavePtr), HI16(Row_Tone_DAC8__D));
 513              		.loc 1 277 0
 514 000c 7B68     		ldr	r3, [r7, #4]
 515 000e 1B0C     		lsrs	r3, r3, #16
 275:Generated_Source\PSoC5/Row_Tone.c **** 		Row_Tone_Wave2_DMA_BYTES_PER_BURST, Row_Tone_Wave2_DMA_REQUEST_PER_BURST,
 516              		.loc 1 275 0
 517 0010 9AB2     		uxth	r2, r3
 518 0012 4FF48043 		mov	r3, #16384
 519 0016 0121     		movs	r1, #1
ARM GAS  C:\Users\LUISAL~1\AppData\Local\Temp\ccEesRCi.s 			page 15


 520 0018 0120     		movs	r0, #1
 521 001a FFF7FEFF 		bl	Row_Tone_Wave2_DMA_DmaInitialize
 522 001e 0346     		mov	r3, r0
 523 0020 1A46     		mov	r2, r3
 524 0022 0F4B     		ldr	r3, .L19
 525 0024 1A70     		strb	r2, [r3]
 278:Generated_Source\PSoC5/Row_Tone.c **** 	#endif /* CY_PSOC3 */
 279:Generated_Source\PSoC5/Row_Tone.c **** 	
 280:Generated_Source\PSoC5/Row_Tone.c **** 	/*
 281:Generated_Source\PSoC5/Row_Tone.c **** 	* TD is looping on itself. 
 282:Generated_Source\PSoC5/Row_Tone.c **** 	* Increment the source address, but not the destination address. 
 283:Generated_Source\PSoC5/Row_Tone.c **** 	*/
 284:Generated_Source\PSoC5/Row_Tone.c **** 	(void)CyDmaTdSetConfiguration(Row_Tone_Wave2TD, sampleSize, Row_Tone_Wave2TD, 
 526              		.loc 1 284 0
 527 0026 0F4B     		ldr	r3, .L19+4
 528 0028 1878     		ldrb	r0, [r3]	@ zero_extendqisi2
 529 002a 0E4B     		ldr	r3, .L19+4
 530 002c 1A78     		ldrb	r2, [r3]	@ zero_extendqisi2
 531 002e 7988     		ldrh	r1, [r7, #2]
 532 0030 0123     		movs	r3, #1
 533 0032 FFF7FEFF 		bl	CyDmaTdSetConfiguration
 285:Generated_Source\PSoC5/Row_Tone.c ****                                     (uint8)CY_DMA_TD_INC_SRC_ADR | (uint8)Row_Tone_Wave2_DMA__TD_TE
 286:Generated_Source\PSoC5/Row_Tone.c **** 	
 287:Generated_Source\PSoC5/Row_Tone.c **** 	/* Set the TD source and destination address */
 288:Generated_Source\PSoC5/Row_Tone.c **** 	(void)CyDmaTdSetAddress(Row_Tone_Wave2TD, LO16((uint32)wavePtr), LO16(Row_Tone_DAC8__D));
 534              		.loc 1 288 0
 535 0036 0B4B     		ldr	r3, .L19+4
 536 0038 1B78     		ldrb	r3, [r3]	@ zero_extendqisi2
 537 003a 7A68     		ldr	r2, [r7, #4]
 538 003c 91B2     		uxth	r1, r2
 539 003e 45F68332 		movw	r2, #23427
 540 0042 1846     		mov	r0, r3
 541 0044 FFF7FEFF 		bl	CyDmaTdSetAddress
 289:Generated_Source\PSoC5/Row_Tone.c **** 	
 290:Generated_Source\PSoC5/Row_Tone.c **** 	/* Associate the TD with the channel */
 291:Generated_Source\PSoC5/Row_Tone.c **** 	(void)CyDmaChSetInitialTd(Row_Tone_Wave2Chan, Row_Tone_Wave2TD);
 542              		.loc 1 291 0
 543 0048 054B     		ldr	r3, .L19
 544 004a 1A78     		ldrb	r2, [r3]	@ zero_extendqisi2
 545 004c 054B     		ldr	r3, .L19+4
 546 004e 1B78     		ldrb	r3, [r3]	@ zero_extendqisi2
 547 0050 1946     		mov	r1, r3
 548 0052 1046     		mov	r0, r2
 549 0054 FFF7FEFF 		bl	CyDmaChSetInitialTd
 292:Generated_Source\PSoC5/Row_Tone.c **** }
 550              		.loc 1 292 0
 551 0058 00BF     		nop
 552 005a 0837     		adds	r7, r7, #8
 553              		.cfi_def_cfa_offset 8
 554 005c BD46     		mov	sp, r7
 555              		.cfi_def_cfa_register 13
 556              		@ sp needed
 557 005e 80BD     		pop	{r7, pc}
 558              	.L20:
 559              		.align	2
 560              	.L19:
 561 0060 02000000 		.word	Row_Tone_Wave2Chan
ARM GAS  C:\Users\LUISAL~1\AppData\Local\Temp\ccEesRCi.s 			page 16


 562 0064 04000000 		.word	Row_Tone_Wave2TD
 563              		.cfi_endproc
 564              	.LFE6:
 565              		.size	Row_Tone_Wave2Setup, .-Row_Tone_Wave2Setup
 566              		.text
 567              	.Letext0:
 568              		.file 2 "Generated_Source\\PSoC5\\cytypes.h"