ARM GAS  C:\Users\LUISAL~1\AppData\Local\Temp\ccPkF9u3.s 			page 1


   1              		.syntax unified
   2              		.cpu cortex-m3
   3              		.fpu softvfp
   4              		.eabi_attribute 20, 1
   5              		.eabi_attribute 21, 1
   6              		.eabi_attribute 23, 3
   7              		.eabi_attribute 24, 1
   8              		.eabi_attribute 25, 1
   9              		.eabi_attribute 26, 1
  10              		.eabi_attribute 30, 6
  11              		.eabi_attribute 34, 1
  12              		.eabi_attribute 18, 4
  13              		.thumb
  14              		.syntax unified
  15              		.file	"main.c"
  16              		.text
  17              	.Ltext0:
  18              		.cfi_sections	.debug_frame
  19              		.comm	ContinuouslySendData,1,1
  20              		.comm	SendSingleByte,1,1
  21              		.comm	SendEmulatedData,1,1
  22              		.comm	TransmitBuffer,16,4
  23              		.comm	EmulatedData,1,1
  24              		.comm	output,1,1
  25              		.global	sampler_counter
  26              		.bss
  27              		.align	1
  28              		.type	sampler_counter, %object
  29              		.size	sampler_counter, 2
  30              	sampler_counter:
  31 0000 0000     		.space	2
  32              		.section	.rodata
  33              		.align	2
  34              	.LC0:
  35 0000 25640D0A 		.ascii	"%d\015\012\000"
  35      00
  36 0005 000000   		.align	2
  37              	.LC1:
  38 0008 25780D0A 		.ascii	"%x\015\012\000"
  38      00
  39              		.section	.text.Transmit,"ax",%progbits
  40              		.align	2
  41              		.global	Transmit
  42              		.thumb
  43              		.thumb_func
  44              		.type	Transmit, %function
  45              	Transmit:
  46              	.LFB64:
  47              		.file 1 "main.c"
   1:main.c        **** /*******************************************************************************
   2:main.c        **** * File Name: main.c
   3:main.c        **** *
   4:main.c        **** * Version: 1.10
   5:main.c        **** *
   6:main.c        **** ********************************************************************************
   7:main.c        **** * Copyright 2012, Cypress Semiconductor Corporation. All rights reserved.
   8:main.c        **** * This software is owned by Cypress Semiconductor Corporation and is protected
ARM GAS  C:\Users\LUISAL~1\AppData\Local\Temp\ccPkF9u3.s 			page 2


   9:main.c        **** * by and subject to worldwide patent and copyright laws and treaties.
  10:main.c        **** * Therefore, you may use this software only as provided in the license agreement
  11:main.c        **** * accompanying the software package from which you obtained this software.
  12:main.c        **** * CYPRESS AND ITS SUPPLIERS MAKE NO WARRANTY OF ANY KIND, EXPRESS OR IMPLIED,
  13:main.c        **** * WITH REGARD TO THIS SOFTWARE, INCLUDING, BUT NOT LIMITED TO, NONINFRINGEMENT,
  14:main.c        **** * IMPLIED WARRANTIES OF MERCHANTABILITY AND FITNESS FOR A PARTICULAR PURPOSE.
  15:main.c        **** *******************************************************************************/
  16:main.c        **** 
  17:main.c        **** #include <project.h>
  18:main.c        **** #include <stdio.h>
  19:main.c        **** #include <math.h>
  20:main.c        **** 
  21:main.c        **** /* Project Defines */
  22:main.c        **** #define FALSE  0
  23:main.c        **** #define TRUE   1
  24:main.c        **** #define TRANSMIT_BUFFER_SIZE  16
  25:main.c        **** 
  26:main.c        **** /* DMA Defines */
  27:main.c        **** #define REQUEST_PER_BURST        (1u)
  28:main.c        **** #define BYTES_PER_BURST          (1u)
  29:main.c        **** #define UPPER_SRC_ADDRESS        CYDEV_PERIPH_BASE
  30:main.c        **** #define UPPER_DEST_ADDRESS       CYDEV_PERIPH_BASE
  31:main.c        **** 
  32:main.c        ****     /* Flags used to store transmit data commands */
  33:main.c        ****     uint8 ContinuouslySendData;
  34:main.c        ****     uint8 SendSingleByte;
  35:main.c        ****     uint8 SendEmulatedData;
  36:main.c        ****     /* Transmit Buffer */
  37:main.c        ****     char TransmitBuffer[TRANSMIT_BUFFER_SIZE];
  38:main.c        ****     /* Variable used to send emulated data */
  39:main.c        ****     uint8 EmulatedData;
  40:main.c        ****     uint8 output;
  41:main.c        ****     uint16 sampler_counter = 0;
  42:main.c        **** 
  43:main.c        **** void DMA_Config(void);
  44:main.c        **** 
  45:main.c        **** //UART transmit interrupt
  46:main.c        **** CY_ISR_PROTO(Transmit);
  47:main.c        **** 
  48:main.c        **** CY_ISR(Transmit)
  49:main.c        **** {   
  48              		.loc 1 49 0
  49              		.cfi_startproc
  50              		@ args = 0, pretend = 0, frame = 0
  51              		@ frame_needed = 1, uses_anonymous_args = 0
  52 0000 80B5     		push	{r7, lr}
  53              		.cfi_def_cfa_offset 8
  54              		.cfi_offset 7, -8
  55              		.cfi_offset 14, -4
  56 0002 00AF     		add	r7, sp, #0
  57              		.cfi_def_cfa_register 7
  50:main.c        ****     /* Send data based on last UART command */
  51:main.c        ****     if(SendSingleByte || ContinuouslySendData)
  58              		.loc 1 51 0
  59 0004 1F4B     		ldr	r3, .L7
  60 0006 1B78     		ldrb	r3, [r3]	@ zero_extendqisi2
  61 0008 002B     		cmp	r3, #0
ARM GAS  C:\Users\LUISAL~1\AppData\Local\Temp\ccPkF9u3.s 			page 3


  62 000a 03D1     		bne	.L2
  63              		.loc 1 51 0 is_stmt 0 discriminator 1
  64 000c 1E4B     		ldr	r3, .L7+4
  65 000e 1B78     		ldrb	r3, [r3]	@ zero_extendqisi2
  66 0010 002B     		cmp	r3, #0
  67 0012 1ED0     		beq	.L3
  68              	.L2:
  52:main.c        ****     {
  53:main.c        ****         sampler_counter++;
  69              		.loc 1 53 0 is_stmt 1
  70 0014 1D4B     		ldr	r3, .L7+8
  71 0016 1B88     		ldrh	r3, [r3]
  72 0018 0133     		adds	r3, r3, #1
  73 001a 9AB2     		uxth	r2, r3
  74 001c 1B4B     		ldr	r3, .L7+8
  75 001e 1A80     		strh	r2, [r3]	@ movhi
  54:main.c        ****         
  55:main.c        ****         if (2000 == sampler_counter) {
  76              		.loc 1 55 0
  77 0020 1A4B     		ldr	r3, .L7+8
  78 0022 1B88     		ldrh	r3, [r3]
  79 0024 B3F5FA6F 		cmp	r3, #2000
  80 0028 05D1     		bne	.L4
  56:main.c        ****             ContinuouslySendData = FALSE;
  81              		.loc 1 56 0
  82 002a 174B     		ldr	r3, .L7+4
  83 002c 0022     		movs	r2, #0
  84 002e 1A70     		strb	r2, [r3]
  57:main.c        ****             sampler_counter = 0;
  85              		.loc 1 57 0
  86 0030 164B     		ldr	r3, .L7+8
  87 0032 0022     		movs	r2, #0
  88 0034 1A80     		strh	r2, [r3]	@ movhi
  89              	.L4:
  58:main.c        ****         }
  59:main.c        ****         
  60:main.c        ****         /* Format ADC result for transmition */
  61:main.c        ****         sprintf(TransmitBuffer, "%d\r\n", output);
  90              		.loc 1 61 0
  91 0036 164B     		ldr	r3, .L7+12
  92 0038 1B78     		ldrb	r3, [r3]	@ zero_extendqisi2
  93 003a 1A46     		mov	r2, r3
  94 003c 1549     		ldr	r1, .L7+16
  95 003e 1648     		ldr	r0, .L7+20
  96 0040 FFF7FEFF 		bl	sprintf
  62:main.c        ****         /* Send out the data */
  63:main.c        ****         UART_1_PutString(TransmitBuffer);
  97              		.loc 1 63 0
  98 0044 1448     		ldr	r0, .L7+20
  99 0046 FFF7FEFF 		bl	UART_1_PutString
  64:main.c        ****         /* Reset the send once flag */
  65:main.c        ****         SendSingleByte = FALSE;
 100              		.loc 1 65 0
 101 004a 0E4B     		ldr	r3, .L7
 102 004c 0022     		movs	r2, #0
 103 004e 1A70     		strb	r2, [r3]
  66:main.c        ****     }
ARM GAS  C:\Users\LUISAL~1\AppData\Local\Temp\ccPkF9u3.s 			page 4


  67:main.c        ****     else if(SendEmulatedData)
  68:main.c        ****     {
  69:main.c        ****         /* Format ADC result for transmition */
  70:main.c        ****         sprintf(TransmitBuffer, "%x\r\n", EmulatedData);
  71:main.c        ****         /* Send out the data */
  72:main.c        ****         UART_1_PutString(TransmitBuffer);
  73:main.c        ****         EmulatedData++;
  74:main.c        ****         /* Reset the send once flag */
  75:main.c        ****         SendEmulatedData = FALSE;   
  76:main.c        ****     }        
  77:main.c        **** }
 104              		.loc 1 77 0
 105 0050 16E0     		b	.L6
 106              	.L3:
  67:main.c        ****     {
 107              		.loc 1 67 0
 108 0052 124B     		ldr	r3, .L7+24
 109 0054 1B78     		ldrb	r3, [r3]	@ zero_extendqisi2
 110 0056 002B     		cmp	r3, #0
 111 0058 12D0     		beq	.L6
  70:main.c        ****         /* Send out the data */
 112              		.loc 1 70 0
 113 005a 114B     		ldr	r3, .L7+28
 114 005c 1B78     		ldrb	r3, [r3]	@ zero_extendqisi2
 115 005e 1A46     		mov	r2, r3
 116 0060 1049     		ldr	r1, .L7+32
 117 0062 0D48     		ldr	r0, .L7+20
 118 0064 FFF7FEFF 		bl	sprintf
  72:main.c        ****         EmulatedData++;
 119              		.loc 1 72 0
 120 0068 0B48     		ldr	r0, .L7+20
 121 006a FFF7FEFF 		bl	UART_1_PutString
  73:main.c        ****         /* Reset the send once flag */
 122              		.loc 1 73 0
 123 006e 0C4B     		ldr	r3, .L7+28
 124 0070 1B78     		ldrb	r3, [r3]	@ zero_extendqisi2
 125 0072 0133     		adds	r3, r3, #1
 126 0074 DAB2     		uxtb	r2, r3
 127 0076 0A4B     		ldr	r3, .L7+28
 128 0078 1A70     		strb	r2, [r3]
  75:main.c        ****     }        
 129              		.loc 1 75 0
 130 007a 084B     		ldr	r3, .L7+24
 131 007c 0022     		movs	r2, #0
 132 007e 1A70     		strb	r2, [r3]
 133              	.L6:
 134              		.loc 1 77 0
 135 0080 00BF     		nop
 136 0082 80BD     		pop	{r7, pc}
 137              	.L8:
 138              		.align	2
 139              	.L7:
 140 0084 00000000 		.word	SendSingleByte
 141 0088 00000000 		.word	ContinuouslySendData
 142 008c 00000000 		.word	sampler_counter
 143 0090 00000000 		.word	output
 144 0094 00000000 		.word	.LC0
ARM GAS  C:\Users\LUISAL~1\AppData\Local\Temp\ccPkF9u3.s 			page 5


 145 0098 00000000 		.word	TransmitBuffer
 146 009c 00000000 		.word	SendEmulatedData
 147 00a0 00000000 		.word	EmulatedData
 148 00a4 08000000 		.word	.LC1
 149              		.cfi_endproc
 150              	.LFE64:
 151              		.size	Transmit, .-Transmit
 152              		.section	.text.filterVDAC,"ax",%progbits
 153              		.align	2
 154              		.global	filterVDAC
 155              		.thumb
 156              		.thumb_func
 157              		.type	filterVDAC, %function
 158              	filterVDAC:
 159              	.LFB65:
  78:main.c        **** 
  79:main.c        **** 
  80:main.c        **** /*******************************************************************************
  81:main.c        **** * Interrupt
  82:main.c        **** ********************************************************************************
  83:main.c        **** * Interrupt generated on Filter sample-ready. Interrupt handle:filterVDAC
  84:main.c        **** *
  85:main.c        **** * Summary:
  86:main.c        **** *  The interrupt performs following functions:
  87:main.c        **** *   1: Reads the left-justified register for Filter Channel A
  88:main.c        **** *   2: Converts it into an unsigned value
  89:main.c        **** *   3: Writes this value to VDAC
  90:main.c        **** *
  91:main.c        **** *******************************************************************************/
  92:main.c        **** CY_ISR(filterVDAC)
  93:main.c        **** {
 160              		.loc 1 93 0
 161              		.cfi_startproc
 162              		@ args = 0, pretend = 0, frame = 0
 163              		@ frame_needed = 1, uses_anonymous_args = 0
 164 0000 80B5     		push	{r7, lr}
 165              		.cfi_def_cfa_offset 8
 166              		.cfi_offset 7, -8
 167              		.cfi_offset 14, -4
 168 0002 00AF     		add	r7, sp, #0
 169              		.cfi_def_cfa_register 7
  94:main.c        ****     /* Convert the 2's complement value to an unsigned 8-bit value
  95:main.c        ****      * The VDAC expects an unsigned 8-bit value as input.
  96:main.c        ****      */
  97:main.c        ****     output = Filter_Read8(Filter_CHANNEL_A)+32u;
 170              		.loc 1 97 0
 171 0004 0020     		movs	r0, #0
 172 0006 FFF7FEFF 		bl	Filter_Read8
 173 000a 0346     		mov	r3, r0
 174 000c 2033     		adds	r3, r3, #32
 175 000e DAB2     		uxtb	r2, r3
 176 0010 044B     		ldr	r3, .L10
 177 0012 1A70     		strb	r2, [r3]
  98:main.c        **** 	VDAC8_SetValue(output);
 178              		.loc 1 98 0
 179 0014 034B     		ldr	r3, .L10
 180 0016 1B78     		ldrb	r3, [r3]	@ zero_extendqisi2
ARM GAS  C:\Users\LUISAL~1\AppData\Local\Temp\ccPkF9u3.s 			page 6


 181 0018 1846     		mov	r0, r3
 182 001a FFF7FEFF 		bl	VDAC8_SetValue
  99:main.c        **** }
 183              		.loc 1 99 0
 184 001e 00BF     		nop
 185 0020 80BD     		pop	{r7, pc}
 186              	.L11:
 187 0022 00BF     		.align	2
 188              	.L10:
 189 0024 00000000 		.word	output
 190              		.cfi_endproc
 191              	.LFE65:
 192              		.size	filterVDAC, .-filterVDAC
 193              		.section	.rodata
 194 000d 000000   		.align	2
 195              	.LC2:
 196 0010 434F4D20 		.ascii	"COM Port Open\000"
 196      506F7274 
 196      204F7065 
 196      6E00
 197              		.section	.text.main,"ax",%progbits
 198              		.align	2
 199              		.global	main
 200              		.thumb
 201              		.thumb_func
 202              		.type	main, %function
 203              	main:
 204              	.LFB66:
 100:main.c        **** 
 101:main.c        **** 
 102:main.c        **** /*******************************************************************************
 103:main.c        **** * Function Name: main
 104:main.c        **** ********************************************************************************
 105:main.c        **** *
 106:main.c        **** * Summary:
 107:main.c        **** *  Main function performs following functions:
 108:main.c        **** *   1: Enables global interrupts
 109:main.c        **** *   2: Start all components on the schematic
 110:main.c        **** *   3: Calls a function to configure DMA
 111:main.c        **** 
 112:main.c        **** * Parameters:
 113:main.c        **** *  None.
 114:main.c        **** *
 115:main.c        **** * Return:
 116:main.c        **** *  None.
 117:main.c        **** *
 118:main.c        **** *******************************************************************************/
 119:main.c        **** int main()
 120:main.c        **** {
 205              		.loc 1 120 0
 206              		.cfi_startproc
 207              		@ args = 0, pretend = 0, frame = 8
 208              		@ frame_needed = 1, uses_anonymous_args = 0
 209 0000 80B5     		push	{r7, lr}
 210              		.cfi_def_cfa_offset 8
 211              		.cfi_offset 7, -8
 212              		.cfi_offset 14, -4
ARM GAS  C:\Users\LUISAL~1\AppData\Local\Temp\ccPkF9u3.s 			page 7


 213 0002 82B0     		sub	sp, sp, #8
 214              		.cfi_def_cfa_offset 16
 215 0004 00AF     		add	r7, sp, #0
 216              		.cfi_def_cfa_register 7
 121:main.c        ****     
 122:main.c        ****     /* Variable to store UART received character */
 123:main.c        ****     uint8 Ch;
 124:main.c        **** 
 125:main.c        ****     /* Start all components used on schematic */
 126:main.c        ****     ADC_DelSig_IRQ_Start();
 217              		.loc 1 126 0
 218 0006 FFF7FEFF 		bl	ADC_DelSig_IRQ_Start
 127:main.c        ****     isr_StartEx(filterVDAC);
 219              		.loc 1 127 0
 220 000a 9C48     		ldr	r0, .L33
 221 000c FFF7FEFF 		bl	isr_StartEx
 128:main.c        ****     isrTimer_StartEx(Transmit);
 222              		.loc 1 128 0
 223 0010 9B48     		ldr	r0, .L33+4
 224 0012 FFF7FEFF 		bl	isrTimer_StartEx
 129:main.c        ****     ADC_DelSig_Start();
 225              		.loc 1 129 0
 226 0016 FFF7FEFF 		bl	ADC_DelSig_Start
 130:main.c        ****     ADC_DelSig_StartConvert();
 227              		.loc 1 130 0
 228 001a FFF7FEFF 		bl	ADC_DelSig_StartConvert
 131:main.c        ****     VDAC8_Start();
 229              		.loc 1 131 0
 230 001e FFF7FEFF 		bl	VDAC8_Start
 132:main.c        ****     WaveDAC8_Start();
 231              		.loc 1 132 0
 232 0022 FFF7FEFF 		bl	WaveDAC8_Start
 133:main.c        ****     Filter_Start();
 233              		.loc 1 133 0
 234 0026 FFF7FEFF 		bl	Filter_Start
 134:main.c        ****     Timer_Start();
 235              		.loc 1 134 0
 236 002a FFF7FEFF 		bl	Timer_Start
 135:main.c        ****     UART_1_Start();
 237              		.loc 1 135 0
 238 002e FFF7FEFF 		bl	UART_1_Start
 136:main.c        ****     
 137:main.c        ****     uint16 CLOCK_DIVIDER_VALUE = 48000;
 239              		.loc 1 137 0
 240 0032 4BF68033 		movw	r3, #48000
 241 0036 FB80     		strh	r3, [r7, #6]	@ movhi
 138:main.c        ****     
 139:main.c        **** 
 140:main.c        ****     /* Initialize Variables */
 141:main.c        ****     ContinuouslySendData = FALSE;
 242              		.loc 1 141 0
 243 0038 924B     		ldr	r3, .L33+8
 244 003a 0022     		movs	r2, #0
 245 003c 1A70     		strb	r2, [r3]
 142:main.c        ****     SendSingleByte = FALSE;
 246              		.loc 1 142 0
 247 003e 924B     		ldr	r3, .L33+12
ARM GAS  C:\Users\LUISAL~1\AppData\Local\Temp\ccPkF9u3.s 			page 8


 248 0040 0022     		movs	r2, #0
 249 0042 1A70     		strb	r2, [r3]
 143:main.c        ****     SendEmulatedData = FALSE;
 250              		.loc 1 143 0
 251 0044 914B     		ldr	r3, .L33+16
 252 0046 0022     		movs	r2, #0
 253 0048 1A70     		strb	r2, [r3]
 144:main.c        ****     EmulatedData = 0;
 254              		.loc 1 144 0
 255 004a 914B     		ldr	r3, .L33+20
 256 004c 0022     		movs	r2, #0
 257 004e 1A70     		strb	r2, [r3]
 145:main.c        ****     
 146:main.c        ****     /* Send message to verify COM port is connected properly */
 147:main.c        ****     UART_1_PutString("COM Port Open");
 258              		.loc 1 147 0
 259 0050 9048     		ldr	r0, .L33+24
 260 0052 FFF7FEFF 		bl	UART_1_PutString
 148:main.c        ****     
 149:main.c        ****     /* User-implemented function to set-up DMA */
 150:main.c        ****     DMA_Config();
 261              		.loc 1 150 0
 262 0056 FFF7FEFF 		bl	DMA_Config
 151:main.c        **** 
 152:main.c        ****     /* Enable Global Interrupts */
 153:main.c        ****     CYGlobalIntEnable;
 263              		.loc 1 153 0
 264              		.syntax unified
 265              	@ 153 "main.c" 1
 266 005a 62B6     		CPSIE   i
 267              	@ 0 "" 2
 268              		.thumb
 269              		.syntax unified
 270              	.L31:
 154:main.c        **** 
 155:main.c        ****     for(;;)
 156:main.c        ****     {
 157:main.c        ****         /* Non-blocking call to get the latest data recieved  */
 158:main.c        ****         Ch = UART_1_GetChar();
 271              		.loc 1 158 0
 272 005c FFF7FEFF 		bl	UART_1_GetChar
 273 0060 0346     		mov	r3, r0
 274 0062 7B71     		strb	r3, [r7, #5]
 159:main.c        ****         
 160:main.c        ****         /* Set flags based on UART command */
 161:main.c        ****         switch(Ch)
 275              		.loc 1 161 0
 276 0064 7B79     		ldrb	r3, [r7, #5]	@ zero_extendqisi2
 277 0066 782B     		cmp	r3, #120
 278 0068 00F20681 		bhi	.L32
 279 006c 01A2     		adr	r2, .L15
 280 006e 52F823F0 		ldr	pc, [r2, r3, lsl #2]
 281 0072 00BF     		.p2align 2
 282              	.L15:
 283 0074 79020000 		.word	.L32+1
 284 0078 79020000 		.word	.L32+1
 285 007c 79020000 		.word	.L32+1
ARM GAS  C:\Users\LUISAL~1\AppData\Local\Temp\ccPkF9u3.s 			page 9


 286 0080 79020000 		.word	.L32+1
 287 0084 79020000 		.word	.L32+1
 288 0088 79020000 		.word	.L32+1
 289 008c 79020000 		.word	.L32+1
 290 0090 79020000 		.word	.L32+1
 291 0094 79020000 		.word	.L32+1
 292 0098 79020000 		.word	.L32+1
 293 009c 79020000 		.word	.L32+1
 294 00a0 79020000 		.word	.L32+1
 295 00a4 79020000 		.word	.L32+1
 296 00a8 79020000 		.word	.L32+1
 297 00ac 79020000 		.word	.L32+1
 298 00b0 79020000 		.word	.L32+1
 299 00b4 79020000 		.word	.L32+1
 300 00b8 79020000 		.word	.L32+1
 301 00bc 79020000 		.word	.L32+1
 302 00c0 79020000 		.word	.L32+1
 303 00c4 79020000 		.word	.L32+1
 304 00c8 79020000 		.word	.L32+1
 305 00cc 79020000 		.word	.L32+1
 306 00d0 79020000 		.word	.L32+1
 307 00d4 79020000 		.word	.L32+1
 308 00d8 79020000 		.word	.L32+1
 309 00dc 79020000 		.word	.L32+1
 310 00e0 79020000 		.word	.L32+1
 311 00e4 79020000 		.word	.L32+1
 312 00e8 79020000 		.word	.L32+1
 313 00ec 79020000 		.word	.L32+1
 314 00f0 79020000 		.word	.L32+1
 315 00f4 79020000 		.word	.L32+1
 316 00f8 79020000 		.word	.L32+1
 317 00fc 79020000 		.word	.L32+1
 318 0100 79020000 		.word	.L32+1
 319 0104 79020000 		.word	.L32+1
 320 0108 79020000 		.word	.L32+1
 321 010c 79020000 		.word	.L32+1
 322 0110 79020000 		.word	.L32+1
 323 0114 79020000 		.word	.L32+1
 324 0118 79020000 		.word	.L32+1
 325 011c 79020000 		.word	.L32+1
 326 0120 79020000 		.word	.L32+1
 327 0124 79020000 		.word	.L32+1
 328 0128 79020000 		.word	.L32+1
 329 012c 79020000 		.word	.L32+1
 330 0130 79020000 		.word	.L32+1
 331 0134 79020000 		.word	.L32+1
 332 0138 79020000 		.word	.L32+1
 333 013c 79020000 		.word	.L32+1
 334 0140 79020000 		.word	.L32+1
 335 0144 79020000 		.word	.L32+1
 336 0148 79020000 		.word	.L32+1
 337 014c 79020000 		.word	.L32+1
 338 0150 79020000 		.word	.L32+1
 339 0154 79020000 		.word	.L32+1
 340 0158 79020000 		.word	.L32+1
 341 015c 79020000 		.word	.L32+1
 342 0160 79020000 		.word	.L32+1
ARM GAS  C:\Users\LUISAL~1\AppData\Local\Temp\ccPkF9u3.s 			page 10


 343 0164 79020000 		.word	.L32+1
 344 0168 79020000 		.word	.L32+1
 345 016c 79020000 		.word	.L32+1
 346 0170 79020000 		.word	.L32+1
 347 0174 79020000 		.word	.L32+1
 348 0178 79020000 		.word	.L32+1
 349 017c 79020000 		.word	.L32+1
 350 0180 59020000 		.word	.L26+1
 351 0184 79020000 		.word	.L32+1
 352 0188 71020000 		.word	.L27+1
 353 018c 79020000 		.word	.L32+1
 354 0190 79020000 		.word	.L32+1
 355 0194 79020000 		.word	.L32+1
 356 0198 79020000 		.word	.L32+1
 357 019c 79020000 		.word	.L32+1
 358 01a0 79020000 		.word	.L32+1
 359 01a4 79020000 		.word	.L32+1
 360 01a8 79020000 		.word	.L32+1
 361 01ac 79020000 		.word	.L32+1
 362 01b0 79020000 		.word	.L32+1
 363 01b4 79020000 		.word	.L32+1
 364 01b8 79020000 		.word	.L32+1
 365 01bc 79020000 		.word	.L32+1
 366 01c0 61020000 		.word	.L28+1
 367 01c4 79020000 		.word	.L32+1
 368 01c8 79020000 		.word	.L32+1
 369 01cc 79020000 		.word	.L32+1
 370 01d0 79020000 		.word	.L32+1
 371 01d4 69020000 		.word	.L29+1
 372 01d8 79020000 		.word	.L32+1
 373 01dc 79020000 		.word	.L32+1
 374 01e0 79020000 		.word	.L32+1
 375 01e4 79020000 		.word	.L32+1
 376 01e8 79020000 		.word	.L32+1
 377 01ec 79020000 		.word	.L32+1
 378 01f0 79020000 		.word	.L32+1
 379 01f4 79020000 		.word	.L32+1
 380 01f8 79020000 		.word	.L32+1
 381 01fc 79020000 		.word	.L32+1
 382 0200 59020000 		.word	.L26+1
 383 0204 79020000 		.word	.L32+1
 384 0208 71020000 		.word	.L27+1
 385 020c 79020000 		.word	.L32+1
 386 0210 79020000 		.word	.L32+1
 387 0214 79020000 		.word	.L32+1
 388 0218 79020000 		.word	.L32+1
 389 021c 79020000 		.word	.L32+1
 390 0220 79020000 		.word	.L32+1
 391 0224 79020000 		.word	.L32+1
 392 0228 79020000 		.word	.L32+1
 393 022c 79020000 		.word	.L32+1
 394 0230 79020000 		.word	.L32+1
 395 0234 79020000 		.word	.L32+1
 396 0238 79020000 		.word	.L32+1
 397 023c 79020000 		.word	.L32+1
 398 0240 61020000 		.word	.L28+1
 399 0244 79020000 		.word	.L32+1
ARM GAS  C:\Users\LUISAL~1\AppData\Local\Temp\ccPkF9u3.s 			page 11


 400 0248 79020000 		.word	.L32+1
 401 024c 79020000 		.word	.L32+1
 402 0250 79020000 		.word	.L32+1
 403 0254 69020000 		.word	.L29+1
 404              		.p2align 1
 405              	.L26:
 162:main.c        ****         {
 163:main.c        ****             case 0:
 164:main.c        ****                 /* No new data was recieved */
 165:main.c        ****                 break;
 166:main.c        ****             case 'C':
 167:main.c        ****             case 'c':
 168:main.c        ****                 SendSingleByte = TRUE;
 406              		.loc 1 168 0
 407 0258 0B4B     		ldr	r3, .L33+12
 408 025a 0122     		movs	r2, #1
 409 025c 1A70     		strb	r2, [r3]
 169:main.c        ****                 break;
 410              		.loc 1 169 0
 411 025e 0CE0     		b	.L30
 412              	.L28:
 170:main.c        ****             case 'S':
 171:main.c        ****             case 's':
 172:main.c        ****                 ContinuouslySendData = TRUE;
 413              		.loc 1 172 0
 414 0260 084B     		ldr	r3, .L33+8
 415 0262 0122     		movs	r2, #1
 416 0264 1A70     		strb	r2, [r3]
 173:main.c        ****                 break;
 417              		.loc 1 173 0
 418 0266 08E0     		b	.L30
 419              	.L29:
 174:main.c        ****             case 'X':
 175:main.c        ****             case 'x':
 176:main.c        ****                 ContinuouslySendData = FALSE;
 420              		.loc 1 176 0
 421 0268 064B     		ldr	r3, .L33+8
 422 026a 0022     		movs	r2, #0
 423 026c 1A70     		strb	r2, [r3]
 177:main.c        ****                 break;
 424              		.loc 1 177 0
 425 026e 04E0     		b	.L30
 426              	.L27:
 178:main.c        ****             case 'E':
 179:main.c        ****             case 'e':
 180:main.c        ****                 SendEmulatedData = TRUE;
 427              		.loc 1 180 0
 428 0270 064B     		ldr	r3, .L33+16
 429 0272 0122     		movs	r2, #1
 430 0274 1A70     		strb	r2, [r3]
 181:main.c        ****                 break;
 431              		.loc 1 181 0
 432 0276 00E0     		b	.L30
 433              	.L32:
 182:main.c        ****             
 183:main.c        ****             case '0':
 184:main.c        ****                 //WaveClock_SetDividerValue(48000);
ARM GAS  C:\Users\LUISAL~1\AppData\Local\Temp\ccPkF9u3.s 			page 12


 185:main.c        ****                 break;
 186:main.c        ****             
 187:main.c        ****             case '1':
 188:main.c        ****                 //WaveClock_SetDividerValue(24000);
 189:main.c        ****                 break;
 190:main.c        ****             
 191:main.c        ****             case '2':
 192:main.c        ****                 //WaveClock_SetDividerValue(12000);
 193:main.c        ****                 break;
 194:main.c        ****             
 195:main.c        ****             case '3':
 196:main.c        ****                 //WaveClock_SetDividerValue(6000);
 197:main.c        ****                 break;
 198:main.c        ****             
 199:main.c        ****             case '4':
 200:main.c        ****                 //WaveClock_SetDividerValue(3000);
 201:main.c        ****                 break;
 202:main.c        ****             
 203:main.c        ****             case '5':
 204:main.c        ****                 //WaveClock_SetDividerValue(1500);
 205:main.c        ****                 break;
 206:main.c        ****             
 207:main.c        ****             case '6':
 208:main.c        ****                 //WaveClock_SetDividerValue(750);
 209:main.c        ****                 break;
 210:main.c        ****             
 211:main.c        ****             case '7':
 212:main.c        ****                 //WaveClock_SetDividerValue(375);
 213:main.c        ****                 break;
 214:main.c        ****             
 215:main.c        ****             case '8':
 216:main.c        ****                 //WaveClock_SetDividerValue(187);
 217:main.c        ****                 break;
 218:main.c        ****             
 219:main.c        ****             case '9':
 220:main.c        ****                 //WaveClock_SetDividerValue(94);
 221:main.c        ****                 break;
 222:main.c        ****             
 223:main.c        ****             
 224:main.c        ****             
 225:main.c        ****             
 226:main.c        ****             default:
 227:main.c        ****                 /* Place error handling code here */
 228:main.c        ****                 break;    
 434              		.loc 1 228 0
 435 0278 00BF     		nop
 436              	.L30:
 229:main.c        ****         }
 230:main.c        ****         
 231:main.c        ****     }
 437              		.loc 1 231 0 discriminator 1
 438 027a EFE6     		b	.L31
 439              	.L34:
 440              		.align	2
 441              	.L33:
 442 027c 00000000 		.word	filterVDAC
 443 0280 00000000 		.word	Transmit
ARM GAS  C:\Users\LUISAL~1\AppData\Local\Temp\ccPkF9u3.s 			page 13


 444 0284 00000000 		.word	ContinuouslySendData
 445 0288 00000000 		.word	SendSingleByte
 446 028c 00000000 		.word	SendEmulatedData
 447 0290 00000000 		.word	EmulatedData
 448 0294 10000000 		.word	.LC2
 449              		.cfi_endproc
 450              	.LFE66:
 451              		.size	main, .-main
 452              		.comm	goertezel_buffer,2,2
 453              		.global	__aeabi_dmul
 454              		.global	__aeabi_ddiv
 455              		.global	__aeabi_dadd
 456              		.global	__aeabi_dsub
 457              		.section	.text.goertzel_filter,"ax",%progbits
 458              		.align	2
 459              		.global	goertzel_filter
 460              		.thumb
 461              		.thumb_func
 462              		.type	goertzel_filter, %function
 463              	goertzel_filter:
 464              	.LFB67:
 232:main.c        **** } /* End of main */
 233:main.c        **** 
 234:main.c        **** 
 235:main.c        **** ///////////////////////////
 236:main.c        **** uint16 goertezel_buffer;
 237:main.c        **** 
 238:main.c        **** #define DTMF_679 679
 239:main.c        **** #define DTMF_770 770
 240:main.c        **** #define DTMF_852 852
 241:main.c        **** #define DTMF_941 941
 242:main.c        **** #define DTMF_1209 1209
 243:main.c        **** #define DTMF_1336 1336
 244:main.c        **** #define DTMF_1477 1477
 245:main.c        **** 
 246:main.c        **** #define SAMPLE_FRECUENCY 8000
 247:main.c        **** #define SAMPLES 8000
 248:main.c        **** 
 249:main.c        **** /**
 250:main.c        **** * Goertezel Algorithm
 251:main.c        **** */
 252:main.c        **** double goertzel_filter(double in_signal[], double frecuency_detect, uint16 samples);
 253:main.c        **** 
 254:main.c        **** double goertzel_filter(double in_signal[], double frecuency_detect, uint16 samples)
 255:main.c        **** {
 465              		.loc 1 255 0
 466              		.cfi_startproc
 467              		@ args = 4, pretend = 0, frame = 64
 468              		@ frame_needed = 1, uses_anonymous_args = 0
 469 0000 B0B5     		push	{r4, r5, r7, lr}
 470              		.cfi_def_cfa_offset 16
 471              		.cfi_offset 4, -16
 472              		.cfi_offset 5, -12
 473              		.cfi_offset 7, -8
 474              		.cfi_offset 14, -4
 475 0002 90B0     		sub	sp, sp, #64
 476              		.cfi_def_cfa_offset 80
ARM GAS  C:\Users\LUISAL~1\AppData\Local\Temp\ccPkF9u3.s 			page 14


 477 0004 00AF     		add	r7, sp, #0
 478              		.cfi_def_cfa_register 7
 479 0006 F860     		str	r0, [r7, #12]
 480 0008 C7E90023 		strd	r2, [r7]
 256:main.c        ****     double vk;
 257:main.c        ****     double vk_1 = 0.0;
 481              		.loc 1 257 0
 482 000c 4FF00003 		mov	r3, #0
 483 0010 4FF00004 		mov	r4, #0
 484 0014 C7E90E34 		strd	r3, [r7, #56]
 258:main.c        ****     double vk_2 = 0.0;
 485              		.loc 1 258 0
 486 0018 4FF00003 		mov	r3, #0
 487 001c 4FF00004 		mov	r4, #0
 488 0020 C7E90C34 		strd	r3, [r7, #48]
 259:main.c        ****     double cos_coeff;
 260:main.c        ****     double k;
 261:main.c        ****     double power;
 262:main.c        ****   
 263:main.c        ****     int i;
 264:main.c        ****     
 265:main.c        ****     cos_coeff = 2*cos(2*M_PI*frecuency_detect/SAMPLE_FRECUENCY); 
 489              		.loc 1 265 0
 490 0024 44A3     		adr	r3, .L39
 491 0026 D3E90023 		ldrd	r2, [r3]
 492 002a D7E90001 		ldrd	r0, [r7]
 493 002e FFF7FEFF 		bl	__aeabi_dmul
 494 0032 0346     		mov	r3, r0
 495 0034 0C46     		mov	r4, r1
 496 0036 1846     		mov	r0, r3
 497 0038 2146     		mov	r1, r4
 498 003a 4FF00002 		mov	r2, #0
 499 003e 404B     		ldr	r3, .L39+8
 500 0040 FFF7FEFF 		bl	__aeabi_ddiv
 501 0044 0346     		mov	r3, r0
 502 0046 0C46     		mov	r4, r1
 503 0048 1846     		mov	r0, r3
 504 004a 2146     		mov	r1, r4
 505 004c FFF7FEFF 		bl	cos
 506 0050 0246     		mov	r2, r0
 507 0052 0B46     		mov	r3, r1
 508 0054 FFF7FEFF 		bl	__aeabi_dadd
 509 0058 0346     		mov	r3, r0
 510 005a 0C46     		mov	r4, r1
 511 005c C7E90834 		strd	r3, [r7, #32]
 266:main.c        ****     
 267:main.c        ****     for (i = 0; i < samples; i++){
 512              		.loc 1 267 0
 513 0060 0023     		movs	r3, #0
 514 0062 FB62     		str	r3, [r7, #44]
 515 0064 29E0     		b	.L36
 516              	.L37:
 268:main.c        ****         vk = cos_coeff * vk_1 - vk_2 + in_signal[i];
 517              		.loc 1 268 0 discriminator 3
 518 0066 D7E90E23 		ldrd	r2, [r7, #56]
 519 006a D7E90801 		ldrd	r0, [r7, #32]
 520 006e FFF7FEFF 		bl	__aeabi_dmul
ARM GAS  C:\Users\LUISAL~1\AppData\Local\Temp\ccPkF9u3.s 			page 15


 521 0072 0346     		mov	r3, r0
 522 0074 0C46     		mov	r4, r1
 523 0076 1846     		mov	r0, r3
 524 0078 2146     		mov	r1, r4
 525 007a D7E90C23 		ldrd	r2, [r7, #48]
 526 007e FFF7FEFF 		bl	__aeabi_dsub
 527 0082 0346     		mov	r3, r0
 528 0084 0C46     		mov	r4, r1
 529 0086 1846     		mov	r0, r3
 530 0088 2146     		mov	r1, r4
 531 008a FB6A     		ldr	r3, [r7, #44]
 532 008c DB00     		lsls	r3, r3, #3
 533 008e FA68     		ldr	r2, [r7, #12]
 534 0090 1344     		add	r3, r3, r2
 535 0092 18CB     		ldmia	r3, {r3-r4}
 536 0094 1A46     		mov	r2, r3
 537 0096 2346     		mov	r3, r4
 538 0098 FFF7FEFF 		bl	__aeabi_dadd
 539 009c 0346     		mov	r3, r0
 540 009e 0C46     		mov	r4, r1
 541 00a0 C7E90634 		strd	r3, [r7, #24]
 269:main.c        ****         vk_2 = vk_1;
 542              		.loc 1 269 0 discriminator 3
 543 00a4 D7E90E34 		ldrd	r3, [r7, #56]
 544 00a8 C7E90C34 		strd	r3, [r7, #48]
 270:main.c        ****         vk_1 = vk;
 545              		.loc 1 270 0 discriminator 3
 546 00ac D7E90634 		ldrd	r3, [r7, #24]
 547 00b0 C7E90E34 		strd	r3, [r7, #56]
 267:main.c        ****         vk = cos_coeff * vk_1 - vk_2 + in_signal[i];
 548              		.loc 1 267 0 discriminator 3
 549 00b4 FB6A     		ldr	r3, [r7, #44]
 550 00b6 0133     		adds	r3, r3, #1
 551 00b8 FB62     		str	r3, [r7, #44]
 552              	.L36:
 267:main.c        ****         vk = cos_coeff * vk_1 - vk_2 + in_signal[i];
 553              		.loc 1 267 0 is_stmt 0 discriminator 1
 554 00ba B7F85020 		ldrh	r2, [r7, #80]
 555 00be FB6A     		ldr	r3, [r7, #44]
 556 00c0 9A42     		cmp	r2, r3
 557 00c2 D0DC     		bgt	.L37
 271:main.c        ****     }
 272:main.c        ****     
 273:main.c        ****     power = (vk_1 * vk_1) + (vk_2 * vk_2) - (cos_coeff * vk_1 * vk_2);
 558              		.loc 1 273 0 is_stmt 1
 559 00c4 D7E90E23 		ldrd	r2, [r7, #56]
 560 00c8 D7E90E01 		ldrd	r0, [r7, #56]
 561 00cc FFF7FEFF 		bl	__aeabi_dmul
 562 00d0 0346     		mov	r3, r0
 563 00d2 0C46     		mov	r4, r1
 564 00d4 2546     		mov	r5, r4
 565 00d6 1C46     		mov	r4, r3
 566 00d8 D7E90C23 		ldrd	r2, [r7, #48]
 567 00dc D7E90C01 		ldrd	r0, [r7, #48]
 568 00e0 FFF7FEFF 		bl	__aeabi_dmul
 569 00e4 0246     		mov	r2, r0
 570 00e6 0B46     		mov	r3, r1
ARM GAS  C:\Users\LUISAL~1\AppData\Local\Temp\ccPkF9u3.s 			page 16


 571 00e8 2046     		mov	r0, r4
 572 00ea 2946     		mov	r1, r5
 573 00ec FFF7FEFF 		bl	__aeabi_dadd
 574 00f0 0346     		mov	r3, r0
 575 00f2 0C46     		mov	r4, r1
 576 00f4 2546     		mov	r5, r4
 577 00f6 1C46     		mov	r4, r3
 578 00f8 D7E90E23 		ldrd	r2, [r7, #56]
 579 00fc D7E90801 		ldrd	r0, [r7, #32]
 580 0100 FFF7FEFF 		bl	__aeabi_dmul
 581 0104 0246     		mov	r2, r0
 582 0106 0B46     		mov	r3, r1
 583 0108 1046     		mov	r0, r2
 584 010a 1946     		mov	r1, r3
 585 010c D7E90C23 		ldrd	r2, [r7, #48]
 586 0110 FFF7FEFF 		bl	__aeabi_dmul
 587 0114 0246     		mov	r2, r0
 588 0116 0B46     		mov	r3, r1
 589 0118 2046     		mov	r0, r4
 590 011a 2946     		mov	r1, r5
 591 011c FFF7FEFF 		bl	__aeabi_dsub
 592 0120 0346     		mov	r3, r0
 593 0122 0C46     		mov	r4, r1
 594 0124 C7E90434 		strd	r3, [r7, #16]
 274:main.c        ****     
 275:main.c        ****     return power;    
 595              		.loc 1 275 0
 596 0128 D7E90434 		ldrd	r3, [r7, #16]
 276:main.c        **** }
 597              		.loc 1 276 0
 598 012c 1846     		mov	r0, r3
 599 012e 2146     		mov	r1, r4
 600 0130 4037     		adds	r7, r7, #64
 601              		.cfi_def_cfa_offset 16
 602 0132 BD46     		mov	sp, r7
 603              		.cfi_def_cfa_register 13
 604              		@ sp needed
 605 0134 B0BD     		pop	{r4, r5, r7, pc}
 606              	.L40:
 607 0136 00BF     		.align	3
 608              	.L39:
 609 0138 182D4454 		.word	1413754136
 610 013c FB211940 		.word	1075388923
 611 0140 0040BF40 		.word	1086275584
 612              		.cfi_endproc
 613              	.LFE67:
 614              		.size	goertzel_filter, .-goertzel_filter
 615              		.global	__aeabi_i2d
 616              		.section	.text.goertzel_coefficient,"ax",%progbits
 617              		.align	2
 618              		.global	goertzel_coefficient
 619              		.thumb
 620              		.thumb_func
 621              		.type	goertzel_coefficient, %function
 622              	goertzel_coefficient:
 623              	.LFB68:
 277:main.c        **** 
ARM GAS  C:\Users\LUISAL~1\AppData\Local\Temp\ccPkF9u3.s 			page 17


 278:main.c        **** /**
 279:main.c        **** * Goertezel Coefficient Axx
 280:main.c        **** */
 281:main.c        **** double goertzel_coefficient(double xk, uint16 samples);
 282:main.c        **** 
 283:main.c        **** double goertzel_coefficient(double xk, uint16 samples)
 284:main.c        **** {
 624              		.loc 1 284 0
 625              		.cfi_startproc
 626              		@ args = 0, pretend = 0, frame = 24
 627              		@ frame_needed = 1, uses_anonymous_args = 0
 628 0000 B0B5     		push	{r4, r5, r7, lr}
 629              		.cfi_def_cfa_offset 16
 630              		.cfi_offset 4, -16
 631              		.cfi_offset 5, -12
 632              		.cfi_offset 7, -8
 633              		.cfi_offset 14, -4
 634 0002 86B0     		sub	sp, sp, #24
 635              		.cfi_def_cfa_offset 40
 636 0004 00AF     		add	r7, sp, #0
 637              		.cfi_def_cfa_register 7
 638 0006 C7E90201 		strd	r0, [r7, #8]
 639 000a 1346     		mov	r3, r2
 640 000c FB80     		strh	r3, [r7, #6]	@ movhi
 285:main.c        ****     double ak;
 286:main.c        ****     
 287:main.c        ****     ak = (2/samples) * sqrt(xk);
 641              		.loc 1 287 0
 642 000e FB88     		ldrh	r3, [r7, #6]
 643 0010 0222     		movs	r2, #2
 644 0012 92FBF3F3 		sdiv	r3, r2, r3
 645 0016 1846     		mov	r0, r3
 646 0018 FFF7FEFF 		bl	__aeabi_i2d
 647 001c 0446     		mov	r4, r0
 648 001e 0D46     		mov	r5, r1
 649 0020 D7E90201 		ldrd	r0, [r7, #8]
 650 0024 FFF7FEFF 		bl	sqrt
 651 0028 0246     		mov	r2, r0
 652 002a 0B46     		mov	r3, r1
 653 002c 2046     		mov	r0, r4
 654 002e 2946     		mov	r1, r5
 655 0030 FFF7FEFF 		bl	__aeabi_dmul
 656 0034 0346     		mov	r3, r0
 657 0036 0C46     		mov	r4, r1
 658 0038 C7E90434 		strd	r3, [r7, #16]
 288:main.c        ****     
 289:main.c        ****     return ak;     
 659              		.loc 1 289 0
 660 003c D7E90434 		ldrd	r3, [r7, #16]
 290:main.c        **** }
 661              		.loc 1 290 0
 662 0040 1846     		mov	r0, r3
 663 0042 2146     		mov	r1, r4
 664 0044 1837     		adds	r7, r7, #24
 665              		.cfi_def_cfa_offset 16
 666 0046 BD46     		mov	sp, r7
 667              		.cfi_def_cfa_register 13
ARM GAS  C:\Users\LUISAL~1\AppData\Local\Temp\ccPkF9u3.s 			page 18


 668              		@ sp needed
 669 0048 B0BD     		pop	{r4, r5, r7, pc}
 670              		.cfi_endproc
 671              	.LFE68:
 672              		.size	goertzel_coefficient, .-goertzel_coefficient
 673              		.comm	a_signal,64000,8
 674              		.global	__aeabi_dcmpgt
 675 004a 00BF     		.section	.rodata
 676 001e 0000     		.align	2
 677              	.LC3:
 678 0020 54686520 		.ascii	"The key is 1\000"
 678      6B657920 
 678      69732031 
 678      00
 679 002d 000000   		.align	2
 680              	.LC4:
 681 0030 54686520 		.ascii	"The key is 2\000"
 681      6B657920 
 681      69732032 
 681      00
 682 003d 000000   		.align	2
 683              	.LC5:
 684 0040 54686520 		.ascii	"The key is 3\000"
 684      6B657920 
 684      69732033 
 684      00
 685 004d 000000   		.align	2
 686              	.LC6:
 687 0050 54686520 		.ascii	"The key is 4\000"
 687      6B657920 
 687      69732034 
 687      00
 688 005d 000000   		.align	2
 689              	.LC7:
 690 0060 54686520 		.ascii	"The key is 5\000"
 690      6B657920 
 690      69732035 
 690      00
 691 006d 000000   		.align	2
 692              	.LC8:
 693 0070 54686520 		.ascii	"The key is 6\000"
 693      6B657920 
 693      69732036 
 693      00
 694 007d 000000   		.align	2
 695              	.LC9:
 696 0080 54686520 		.ascii	"The key is 7\000"
 696      6B657920 
 696      69732037 
 696      00
 697 008d 000000   		.align	2
 698              	.LC10:
 699 0090 54686520 		.ascii	"The key is 8\000"
 699      6B657920 
 699      69732038 
 699      00
 700 009d 000000   		.align	2
ARM GAS  C:\Users\LUISAL~1\AppData\Local\Temp\ccPkF9u3.s 			page 19


 701              	.LC11:
 702 00a0 54686520 		.ascii	"The key is 9\000"
 702      6B657920 
 702      69732039 
 702      00
 703 00ad 000000   		.align	2
 704              	.LC12:
 705 00b0 54686520 		.ascii	"The key is 0\000"
 705      6B657920 
 705      69732030 
 705      00
 706              		.section	.text.goertzel_compute,"ax",%progbits
 707              		.align	2
 708              		.global	goertzel_compute
 709              		.thumb
 710              		.thumb_func
 711              		.type	goertzel_compute, %function
 712              	goertzel_compute:
 713              	.LFB69:
 291:main.c        **** 
 292:main.c        **** /**
 293:main.c        **** * Goertzel Init
 294:main.c        **** */
 295:main.c        **** void goertzel_init();
 296:main.c        **** 
 297:main.c        **** // ToDo
 298:main.c        **** double a_signal[8000];
 299:main.c        **** 
 300:main.c        **** void goertzel_compute()
 301:main.c        **** {
 714              		.loc 1 301 0
 715              		.cfi_startproc
 716              		@ args = 0, pretend = 0, frame = 120
 717              		@ frame_needed = 1, uses_anonymous_args = 0
 718 0000 90B5     		push	{r4, r7, lr}
 719              		.cfi_def_cfa_offset 12
 720              		.cfi_offset 4, -12
 721              		.cfi_offset 7, -8
 722              		.cfi_offset 14, -4
 723 0002 A1B0     		sub	sp, sp, #132
 724              		.cfi_def_cfa_offset 144
 725 0004 02AF     		add	r7, sp, #8
 726              		.cfi_def_cfa 7, 136
 302:main.c        ****     double h18, h20, h22, h24, h31, h34, h38;
 303:main.c        ****     double a18, a20, a22, a24, a31, a34, a38;
 304:main.c        ****     double thr;
 305:main.c        ****     
 306:main.c        ****     // each of the 7 filters with different frequencies to revise
 307:main.c        ****     h18 = goertzel_filter(a_signal, DTMF_679, SAMPLES);
 727              		.loc 1 307 0
 728 0006 4FF4FA53 		mov	r3, #8000
 729 000a 0093     		str	r3, [sp]
 730 000c 4FF00002 		mov	r2, #0
 731 0010 A54B     		ldr	r3, .L95+24
 732 0012 A648     		ldr	r0, .L95+28
 733 0014 FFF7FEFF 		bl	goertzel_filter
 734 0018 C7E91C01 		strd	r0, [r7, #112]
ARM GAS  C:\Users\LUISAL~1\AppData\Local\Temp\ccPkF9u3.s 			page 20


 308:main.c        ****     h20 = goertzel_filter(a_signal, DTMF_770, SAMPLES);
 735              		.loc 1 308 0
 736 001c 4FF4FA53 		mov	r3, #8000
 737 0020 0093     		str	r3, [sp]
 738 0022 4FF00002 		mov	r2, #0
 739 0026 A24B     		ldr	r3, .L95+32
 740 0028 A048     		ldr	r0, .L95+28
 741 002a FFF7FEFF 		bl	goertzel_filter
 742 002e C7E91A01 		strd	r0, [r7, #104]
 309:main.c        ****     h22 = goertzel_filter(a_signal, DTMF_852, SAMPLES);
 743              		.loc 1 309 0
 744 0032 4FF4FA53 		mov	r3, #8000
 745 0036 0093     		str	r3, [sp]
 746 0038 4FF00002 		mov	r2, #0
 747 003c 9D4B     		ldr	r3, .L95+36
 748 003e 9B48     		ldr	r0, .L95+28
 749 0040 FFF7FEFF 		bl	goertzel_filter
 750 0044 C7E91801 		strd	r0, [r7, #96]
 310:main.c        ****     h24 = goertzel_filter(a_signal, DTMF_941, SAMPLES);
 751              		.loc 1 310 0
 752 0048 4FF4FA53 		mov	r3, #8000
 753 004c 0093     		str	r3, [sp]
 754 004e 90A3     		adr	r3, .L95
 755 0050 D3E90023 		ldrd	r2, [r3]
 756 0054 9548     		ldr	r0, .L95+28
 757 0056 FFF7FEFF 		bl	goertzel_filter
 758 005a C7E91601 		strd	r0, [r7, #88]
 311:main.c        ****     h31 = goertzel_filter(a_signal, DTMF_1209, SAMPLES);
 759              		.loc 1 311 0
 760 005e 4FF4FA53 		mov	r3, #8000
 761 0062 0093     		str	r3, [sp]
 762 0064 8CA3     		adr	r3, .L95+8
 763 0066 D3E90023 		ldrd	r2, [r3]
 764 006a 9048     		ldr	r0, .L95+28
 765 006c FFF7FEFF 		bl	goertzel_filter
 766 0070 C7E91401 		strd	r0, [r7, #80]
 312:main.c        ****     h34 = goertzel_filter(a_signal, DTMF_1336, SAMPLES);
 767              		.loc 1 312 0
 768 0074 4FF4FA53 		mov	r3, #8000
 769 0078 0093     		str	r3, [sp]
 770 007a 4FF00002 		mov	r2, #0
 771 007e 8E4B     		ldr	r3, .L95+40
 772 0080 8A48     		ldr	r0, .L95+28
 773 0082 FFF7FEFF 		bl	goertzel_filter
 774 0086 C7E91201 		strd	r0, [r7, #72]
 313:main.c        ****     h38 = goertzel_filter(a_signal, DTMF_1477, SAMPLES);
 775              		.loc 1 313 0
 776 008a 4FF4FA53 		mov	r3, #8000
 777 008e 0093     		str	r3, [sp]
 778 0090 83A3     		adr	r3, .L95+16
 779 0092 D3E90023 		ldrd	r2, [r3]
 780 0096 8548     		ldr	r0, .L95+28
 781 0098 FFF7FEFF 		bl	goertzel_filter
 782 009c C7E91001 		strd	r0, [r7, #64]
 314:main.c        ****     
 315:main.c        ****     // each of the coefficientes Axx to retrieve the single-sided amplituded spectrum 
 316:main.c        ****     a18 = goertzel_coefficient(h18, SAMPLES);
ARM GAS  C:\Users\LUISAL~1\AppData\Local\Temp\ccPkF9u3.s 			page 21


 783              		.loc 1 316 0
 784 00a0 4FF4FA52 		mov	r2, #8000
 785 00a4 D7E91C01 		ldrd	r0, [r7, #112]
 786 00a8 FFF7FEFF 		bl	goertzel_coefficient
 787 00ac C7E90E01 		strd	r0, [r7, #56]
 317:main.c        ****     a20 = goertzel_coefficient(h20, SAMPLES);
 788              		.loc 1 317 0
 789 00b0 4FF4FA52 		mov	r2, #8000
 790 00b4 D7E91A01 		ldrd	r0, [r7, #104]
 791 00b8 FFF7FEFF 		bl	goertzel_coefficient
 792 00bc C7E90C01 		strd	r0, [r7, #48]
 318:main.c        ****     a22 = goertzel_coefficient(h22, SAMPLES);
 793              		.loc 1 318 0
 794 00c0 4FF4FA52 		mov	r2, #8000
 795 00c4 D7E91801 		ldrd	r0, [r7, #96]
 796 00c8 FFF7FEFF 		bl	goertzel_coefficient
 797 00cc C7E90A01 		strd	r0, [r7, #40]
 319:main.c        ****     a24 = goertzel_coefficient(h24, SAMPLES);
 798              		.loc 1 319 0
 799 00d0 4FF4FA52 		mov	r2, #8000
 800 00d4 D7E91601 		ldrd	r0, [r7, #88]
 801 00d8 FFF7FEFF 		bl	goertzel_coefficient
 802 00dc C7E90801 		strd	r0, [r7, #32]
 320:main.c        ****     a31 = goertzel_coefficient(h31, SAMPLES);
 803              		.loc 1 320 0
 804 00e0 4FF4FA52 		mov	r2, #8000
 805 00e4 D7E91401 		ldrd	r0, [r7, #80]
 806 00e8 FFF7FEFF 		bl	goertzel_coefficient
 807 00ec C7E90601 		strd	r0, [r7, #24]
 321:main.c        ****     a34 = goertzel_coefficient(h34, SAMPLES);
 808              		.loc 1 321 0
 809 00f0 4FF4FA52 		mov	r2, #8000
 810 00f4 D7E91201 		ldrd	r0, [r7, #72]
 811 00f8 FFF7FEFF 		bl	goertzel_coefficient
 812 00fc C7E90401 		strd	r0, [r7, #16]
 322:main.c        ****     a38 = goertzel_coefficient(h38, SAMPLES);
 813              		.loc 1 322 0
 814 0100 4FF4FA52 		mov	r2, #8000
 815 0104 D7E91001 		ldrd	r0, [r7, #64]
 816 0108 FFF7FEFF 		bl	goertzel_coefficient
 817 010c C7E90201 		strd	r0, [r7, #8]
 323:main.c        ****     
 324:main.c        ****     // Threshold that needs to be overpassed to detect a tone
 325:main.c        ****     thr = (a18 + a20 + a22 + a24 + a31 + a34 + a38)/4;
 818              		.loc 1 325 0
 819 0110 D7E90C23 		ldrd	r2, [r7, #48]
 820 0114 D7E90E01 		ldrd	r0, [r7, #56]
 821 0118 FFF7FEFF 		bl	__aeabi_dadd
 822 011c 0346     		mov	r3, r0
 823 011e 0C46     		mov	r4, r1
 824 0120 1846     		mov	r0, r3
 825 0122 2146     		mov	r1, r4
 826 0124 D7E90A23 		ldrd	r2, [r7, #40]
 827 0128 FFF7FEFF 		bl	__aeabi_dadd
 828 012c 0346     		mov	r3, r0
 829 012e 0C46     		mov	r4, r1
 830 0130 1846     		mov	r0, r3
ARM GAS  C:\Users\LUISAL~1\AppData\Local\Temp\ccPkF9u3.s 			page 22


 831 0132 2146     		mov	r1, r4
 832 0134 D7E90823 		ldrd	r2, [r7, #32]
 833 0138 FFF7FEFF 		bl	__aeabi_dadd
 834 013c 0346     		mov	r3, r0
 835 013e 0C46     		mov	r4, r1
 836 0140 1846     		mov	r0, r3
 837 0142 2146     		mov	r1, r4
 838 0144 D7E90623 		ldrd	r2, [r7, #24]
 839 0148 FFF7FEFF 		bl	__aeabi_dadd
 840 014c 0346     		mov	r3, r0
 841 014e 0C46     		mov	r4, r1
 842 0150 1846     		mov	r0, r3
 843 0152 2146     		mov	r1, r4
 844 0154 D7E90423 		ldrd	r2, [r7, #16]
 845 0158 FFF7FEFF 		bl	__aeabi_dadd
 846 015c 0346     		mov	r3, r0
 847 015e 0C46     		mov	r4, r1
 848 0160 1846     		mov	r0, r3
 849 0162 2146     		mov	r1, r4
 850 0164 D7E90223 		ldrd	r2, [r7, #8]
 851 0168 FFF7FEFF 		bl	__aeabi_dadd
 852 016c 0346     		mov	r3, r0
 853 016e 0C46     		mov	r4, r1
 854 0170 1846     		mov	r0, r3
 855 0172 2146     		mov	r1, r4
 856 0174 4FF00002 		mov	r2, #0
 857 0178 504B     		ldr	r3, .L95+44
 858 017a FFF7FEFF 		bl	__aeabi_ddiv
 859 017e 0346     		mov	r3, r0
 860 0180 0C46     		mov	r4, r1
 861 0182 C7E90034 		strd	r3, [r7]
 326:main.c        ****     
 327:main.c        ****     // If-else statements
 328:main.c        ****     
 329:main.c        ****     // First row
 330:main.c        ****     if (a18 > thr && a31 > thr) {
 862              		.loc 1 330 0
 863 0186 D7E90023 		ldrd	r2, [r7]
 864 018a D7E90E01 		ldrd	r0, [r7, #56]
 865 018e FFF7FEFF 		bl	__aeabi_dcmpgt
 866 0192 0346     		mov	r3, r0
 867 0194 002B     		cmp	r3, #0
 868 0196 0CD0     		beq	.L44
 869              		.loc 1 330 0 is_stmt 0 discriminator 1
 870 0198 D7E90023 		ldrd	r2, [r7]
 871 019c D7E90601 		ldrd	r0, [r7, #24]
 872 01a0 FFF7FEFF 		bl	__aeabi_dcmpgt
 873 01a4 0346     		mov	r3, r0
 874 01a6 002B     		cmp	r3, #0
 875 01a8 03D0     		beq	.L44
 331:main.c        ****         //ToDo: take action
 332:main.c        ****         printf("The key is 1\n");
 876              		.loc 1 332 0 is_stmt 1
 877 01aa 4548     		ldr	r0, .L95+48
 878 01ac FFF7FEFF 		bl	puts
 879 01b0 ECE0     		b	.L47
 880              	.L44:
ARM GAS  C:\Users\LUISAL~1\AppData\Local\Temp\ccPkF9u3.s 			page 23


 333:main.c        ****         
 334:main.c        ****     } else if (a18 > thr && a34 > thr) {
 881              		.loc 1 334 0
 882 01b2 D7E90023 		ldrd	r2, [r7]
 883 01b6 D7E90E01 		ldrd	r0, [r7, #56]
 884 01ba FFF7FEFF 		bl	__aeabi_dcmpgt
 885 01be 0346     		mov	r3, r0
 886 01c0 002B     		cmp	r3, #0
 887 01c2 0CD0     		beq	.L48
 888              		.loc 1 334 0 is_stmt 0 discriminator 1
 889 01c4 D7E90023 		ldrd	r2, [r7]
 890 01c8 D7E90401 		ldrd	r0, [r7, #16]
 891 01cc FFF7FEFF 		bl	__aeabi_dcmpgt
 892 01d0 0346     		mov	r3, r0
 893 01d2 002B     		cmp	r3, #0
 894 01d4 03D0     		beq	.L48
 335:main.c        ****         //ToDo: take action
 336:main.c        ****         printf("The key is 2\n");
 895              		.loc 1 336 0 is_stmt 1
 896 01d6 3B48     		ldr	r0, .L95+52
 897 01d8 FFF7FEFF 		bl	puts
 898 01dc D6E0     		b	.L47
 899              	.L48:
 337:main.c        ****         
 338:main.c        ****     } else if (a18 > thr && a38 > thr) {
 900              		.loc 1 338 0
 901 01de D7E90023 		ldrd	r2, [r7]
 902 01e2 D7E90E01 		ldrd	r0, [r7, #56]
 903 01e6 FFF7FEFF 		bl	__aeabi_dcmpgt
 904 01ea 0346     		mov	r3, r0
 905 01ec 002B     		cmp	r3, #0
 906 01ee 0CD0     		beq	.L51
 907              		.loc 1 338 0 is_stmt 0 discriminator 1
 908 01f0 D7E90023 		ldrd	r2, [r7]
 909 01f4 D7E90201 		ldrd	r0, [r7, #8]
 910 01f8 FFF7FEFF 		bl	__aeabi_dcmpgt
 911 01fc 0346     		mov	r3, r0
 912 01fe 002B     		cmp	r3, #0
 913 0200 03D0     		beq	.L51
 339:main.c        ****         //ToDo: take action
 340:main.c        ****         printf("The key is 3\n");
 914              		.loc 1 340 0 is_stmt 1
 915 0202 3148     		ldr	r0, .L95+56
 916 0204 FFF7FEFF 		bl	puts
 917 0208 C0E0     		b	.L47
 918              	.L51:
 341:main.c        ****         
 342:main.c        ****         
 343:main.c        ****     // Second row
 344:main.c        ****     } else if (a20 > thr && a31 > thr) {
 919              		.loc 1 344 0
 920 020a D7E90023 		ldrd	r2, [r7]
 921 020e D7E90C01 		ldrd	r0, [r7, #48]
 922 0212 FFF7FEFF 		bl	__aeabi_dcmpgt
 923 0216 0346     		mov	r3, r0
 924 0218 002B     		cmp	r3, #0
 925 021a 0CD0     		beq	.L54
ARM GAS  C:\Users\LUISAL~1\AppData\Local\Temp\ccPkF9u3.s 			page 24


 926              		.loc 1 344 0 is_stmt 0 discriminator 1
 927 021c D7E90023 		ldrd	r2, [r7]
 928 0220 D7E90601 		ldrd	r0, [r7, #24]
 929 0224 FFF7FEFF 		bl	__aeabi_dcmpgt
 930 0228 0346     		mov	r3, r0
 931 022a 002B     		cmp	r3, #0
 932 022c 03D0     		beq	.L54
 345:main.c        ****         //ToDo: take action
 346:main.c        ****         printf("The key is 4\n");
 933              		.loc 1 346 0 is_stmt 1
 934 022e 2748     		ldr	r0, .L95+60
 935 0230 FFF7FEFF 		bl	puts
 936 0234 AAE0     		b	.L47
 937              	.L54:
 347:main.c        ****         
 348:main.c        ****     } else if (a20 > thr && a34 > thr) {
 938              		.loc 1 348 0
 939 0236 D7E90023 		ldrd	r2, [r7]
 940 023a D7E90C01 		ldrd	r0, [r7, #48]
 941 023e FFF7FEFF 		bl	__aeabi_dcmpgt
 942 0242 0346     		mov	r3, r0
 943 0244 002B     		cmp	r3, #0
 944 0246 0CD0     		beq	.L57
 945              		.loc 1 348 0 is_stmt 0 discriminator 1
 946 0248 D7E90023 		ldrd	r2, [r7]
 947 024c D7E90401 		ldrd	r0, [r7, #16]
 948 0250 FFF7FEFF 		bl	__aeabi_dcmpgt
 949 0254 0346     		mov	r3, r0
 950 0256 002B     		cmp	r3, #0
 951 0258 03D0     		beq	.L57
 349:main.c        ****         //ToDo: take action
 350:main.c        ****         printf("The key is 5\n");
 952              		.loc 1 350 0 is_stmt 1
 953 025a 1D48     		ldr	r0, .L95+64
 954 025c FFF7FEFF 		bl	puts
 955 0260 94E0     		b	.L47
 956              	.L57:
 351:main.c        ****         
 352:main.c        ****     } else if (a20 > thr && a38 > thr) {
 957              		.loc 1 352 0
 958 0262 D7E90023 		ldrd	r2, [r7]
 959 0266 D7E90C01 		ldrd	r0, [r7, #48]
 960 026a FFF7FEFF 		bl	__aeabi_dcmpgt
 961 026e 0346     		mov	r3, r0
 962 0270 002B     		cmp	r3, #0
 963 0272 31D0     		beq	.L60
 964              		.loc 1 352 0 is_stmt 0 discriminator 1
 965 0274 D7E90023 		ldrd	r2, [r7]
 966 0278 D7E90201 		ldrd	r0, [r7, #8]
 967 027c FFF7FEFF 		bl	__aeabi_dcmpgt
 968 0280 0346     		mov	r3, r0
 969 0282 002B     		cmp	r3, #0
 970 0284 28D0     		beq	.L60
 353:main.c        ****         //ToDo: take action
 354:main.c        ****         printf("The key is 6\n");
 971              		.loc 1 354 0 is_stmt 1
 972 0286 1348     		ldr	r0, .L95+68
ARM GAS  C:\Users\LUISAL~1\AppData\Local\Temp\ccPkF9u3.s 			page 25


 973 0288 FFF7FEFF 		bl	puts
 974 028c 7EE0     		b	.L47
 975              	.L96:
 976 028e 00BF     		.align	3
 977              	.L95:
 978 0290 00000000 		.word	0
 979 0294 00688D40 		.word	1083009024
 980 0298 00000000 		.word	0
 981 029c 00E49240 		.word	1083368448
 982 02a0 00000000 		.word	0
 983 02a4 00149740 		.word	1083642880
 984 02a8 00388540 		.word	1082472448
 985 02ac 00000000 		.word	a_signal
 986 02b0 00108840 		.word	1082658816
 987 02b4 00A08A40 		.word	1082826752
 988 02b8 00E09440 		.word	1083498496
 989 02bc 00001040 		.word	1074790400
 990 02c0 20000000 		.word	.LC3
 991 02c4 30000000 		.word	.LC4
 992 02c8 40000000 		.word	.LC5
 993 02cc 50000000 		.word	.LC6
 994 02d0 60000000 		.word	.LC7
 995 02d4 70000000 		.word	.LC8
 996              	.L60:
 355:main.c        ****         
 356:main.c        ****       
 357:main.c        ****     // Third row
 358:main.c        ****     } else if (a22 > thr && a31 > thr) {
 997              		.loc 1 358 0
 998 02d8 D7E90023 		ldrd	r2, [r7]
 999 02dc D7E90A01 		ldrd	r0, [r7, #40]
 1000 02e0 FFF7FEFF 		bl	__aeabi_dcmpgt
 1001 02e4 0346     		mov	r3, r0
 1002 02e6 002B     		cmp	r3, #0
 1003 02e8 0CD0     		beq	.L63
 1004              		.loc 1 358 0 is_stmt 0 discriminator 1
 1005 02ea D7E90023 		ldrd	r2, [r7]
 1006 02ee D7E90601 		ldrd	r0, [r7, #24]
 1007 02f2 FFF7FEFF 		bl	__aeabi_dcmpgt
 1008 02f6 0346     		mov	r3, r0
 1009 02f8 002B     		cmp	r3, #0
 1010 02fa 03D0     		beq	.L63
 359:main.c        ****         //ToDo: take action
 360:main.c        ****         printf("The key is 7\n");
 1011              		.loc 1 360 0 is_stmt 1
 1012 02fc 2548     		ldr	r0, .L97
 1013 02fe FFF7FEFF 		bl	puts
 1014 0302 43E0     		b	.L47
 1015              	.L63:
 361:main.c        ****         
 362:main.c        ****     } else if (a22 > thr && a34 > thr) {
 1016              		.loc 1 362 0
 1017 0304 D7E90023 		ldrd	r2, [r7]
 1018 0308 D7E90A01 		ldrd	r0, [r7, #40]
 1019 030c FFF7FEFF 		bl	__aeabi_dcmpgt
 1020 0310 0346     		mov	r3, r0
 1021 0312 002B     		cmp	r3, #0
ARM GAS  C:\Users\LUISAL~1\AppData\Local\Temp\ccPkF9u3.s 			page 26


 1022 0314 0CD0     		beq	.L66
 1023              		.loc 1 362 0 is_stmt 0 discriminator 1
 1024 0316 D7E90023 		ldrd	r2, [r7]
 1025 031a D7E90401 		ldrd	r0, [r7, #16]
 1026 031e FFF7FEFF 		bl	__aeabi_dcmpgt
 1027 0322 0346     		mov	r3, r0
 1028 0324 002B     		cmp	r3, #0
 1029 0326 03D0     		beq	.L66
 363:main.c        ****         //ToDo: take action
 364:main.c        ****         printf("The key is 8\n");
 1030              		.loc 1 364 0 is_stmt 1
 1031 0328 1B48     		ldr	r0, .L97+4
 1032 032a FFF7FEFF 		bl	puts
 1033 032e 2DE0     		b	.L47
 1034              	.L66:
 365:main.c        ****         
 366:main.c        ****     } else if (a22 > thr && a38 > thr) {
 1035              		.loc 1 366 0
 1036 0330 D7E90023 		ldrd	r2, [r7]
 1037 0334 D7E90A01 		ldrd	r0, [r7, #40]
 1038 0338 FFF7FEFF 		bl	__aeabi_dcmpgt
 1039 033c 0346     		mov	r3, r0
 1040 033e 002B     		cmp	r3, #0
 1041 0340 0CD0     		beq	.L69
 1042              		.loc 1 366 0 is_stmt 0 discriminator 1
 1043 0342 D7E90023 		ldrd	r2, [r7]
 1044 0346 D7E90201 		ldrd	r0, [r7, #8]
 1045 034a FFF7FEFF 		bl	__aeabi_dcmpgt
 1046 034e 0346     		mov	r3, r0
 1047 0350 002B     		cmp	r3, #0
 1048 0352 03D0     		beq	.L69
 367:main.c        ****         //ToDo: take action
 368:main.c        ****         printf("The key is 9\n");
 1049              		.loc 1 368 0 is_stmt 1
 1050 0354 1148     		ldr	r0, .L97+8
 1051 0356 FFF7FEFF 		bl	puts
 1052 035a 17E0     		b	.L47
 1053              	.L69:
 369:main.c        ****        
 370:main.c        ****         
 371:main.c        ****     // Fourth row    
 372:main.c        ****     } else if (a24 > thr && a34 > thr) {
 1054              		.loc 1 372 0
 1055 035c D7E90023 		ldrd	r2, [r7]
 1056 0360 D7E90801 		ldrd	r0, [r7, #32]
 1057 0364 FFF7FEFF 		bl	__aeabi_dcmpgt
 1058 0368 0346     		mov	r3, r0
 1059 036a 002B     		cmp	r3, #0
 1060 036c 00D1     		bne	.L92
 373:main.c        ****         //ToDo: take action
 374:main.c        ****         printf("The key is 0\n");
 375:main.c        ****     }
 376:main.c        **** }
 1061              		.loc 1 376 0
 1062 036e 0DE0     		b	.L94
 1063              	.L92:
 372:main.c        ****         //ToDo: take action
ARM GAS  C:\Users\LUISAL~1\AppData\Local\Temp\ccPkF9u3.s 			page 27


 1064              		.loc 1 372 0 discriminator 1
 1065 0370 D7E90023 		ldrd	r2, [r7]
 1066 0374 D7E90401 		ldrd	r0, [r7, #16]
 1067 0378 FFF7FEFF 		bl	__aeabi_dcmpgt
 1068 037c 0346     		mov	r3, r0
 1069 037e 002B     		cmp	r3, #0
 1070 0380 00D1     		bne	.L93
 1071              		.loc 1 376 0 discriminator 1
 1072 0382 03E0     		b	.L94
 1073              	.L93:
 374:main.c        ****     }
 1074              		.loc 1 374 0
 1075 0384 0648     		ldr	r0, .L97+12
 1076 0386 FFF7FEFF 		bl	puts
 1077              		.loc 1 376 0
 1078 038a FFE7     		b	.L94
 1079              	.L47:
 1080              	.L94:
 1081 038c 00BF     		nop
 1082 038e 7C37     		adds	r7, r7, #124
 1083              		.cfi_def_cfa_offset 12
 1084 0390 BD46     		mov	sp, r7
 1085              		.cfi_def_cfa_register 13
 1086              		@ sp needed
 1087 0392 90BD     		pop	{r4, r7, pc}
 1088              	.L98:
 1089              		.align	2
 1090              	.L97:
 1091 0394 80000000 		.word	.LC9
 1092 0398 90000000 		.word	.LC10
 1093 039c A0000000 		.word	.LC11
 1094 03a0 B0000000 		.word	.LC12
 1095              		.cfi_endproc
 1096              	.LFE69:
 1097              		.size	goertzel_compute, .-goertzel_compute
 1098              		.section	.text.DMA_Config,"ax",%progbits
 1099              		.align	2
 1100              		.global	DMA_Config
 1101              		.thumb
 1102              		.thumb_func
 1103              		.type	DMA_Config, %function
 1104              	DMA_Config:
 1105              	.LFB70:
 377:main.c        **** 
 378:main.c        **** ///////////////////////////
 379:main.c        **** 
 380:main.c        **** 
 381:main.c        **** /*******************************************************************************
 382:main.c        **** * Function Name: DMA_Config
 383:main.c        **** ********************************************************************************
 384:main.c        **** *
 385:main.c        **** * Summary:
 386:main.c        **** *  Initializes and sets up DMA for use (generated by DMA Wizard)
 387:main.c        **** *
 388:main.c        **** * Parameters:
 389:main.c        **** *  None.
 390:main.c        **** *
ARM GAS  C:\Users\LUISAL~1\AppData\Local\Temp\ccPkF9u3.s 			page 28


 391:main.c        **** * Return:
 392:main.c        **** *  None.
 393:main.c        **** *
 394:main.c        **** *******************************************************************************/
 395:main.c        **** void DMA_Config(void)
 396:main.c        **** {
 1106              		.loc 1 396 0
 1107              		.cfi_startproc
 1108              		@ args = 0, pretend = 0, frame = 8
 1109              		@ frame_needed = 1, uses_anonymous_args = 0
 1110 0000 80B5     		push	{r7, lr}
 1111              		.cfi_def_cfa_offset 8
 1112              		.cfi_offset 7, -8
 1113              		.cfi_offset 14, -4
 1114 0002 82B0     		sub	sp, sp, #8
 1115              		.cfi_def_cfa_offset 16
 1116 0004 00AF     		add	r7, sp, #0
 1117              		.cfi_def_cfa_register 7
 397:main.c        ****     /* Declare variable to hold the handle for DMA channel */
 398:main.c        ****     uint8 channelHandle;
 399:main.c        **** 
 400:main.c        ****     /* Declare DMA Transaction Descriptor for memory transfer into
 401:main.c        ****      * Filter Channel.
 402:main.c        ****      */
 403:main.c        ****     uint8 tdChanA;
 404:main.c        **** 
 405:main.c        ****     /* Configure the DMA to Transfer the data in 1 burst with individual trigger
 406:main.c        ****      * for each burst.
 407:main.c        ****      */
 408:main.c        ****     channelHandle = DMA_DmaInitialize(BYTES_PER_BURST, REQUEST_PER_BURST,
 1118              		.loc 1 408 0
 1119 0006 4FF48043 		mov	r3, #16384
 1120 000a 4FF48042 		mov	r2, #16384
 1121 000e 0121     		movs	r1, #1
 1122 0010 0120     		movs	r0, #1
 1123 0012 FFF7FEFF 		bl	DMA_DmaInitialize
 1124 0016 0346     		mov	r3, r0
 1125 0018 FB71     		strb	r3, [r7, #7]
 409:main.c        ****                                         HI16(UPPER_SRC_ADDRESS), HI16(UPPER_DEST_ADDRESS));
 410:main.c        **** 
 411:main.c        ****     /* This function allocates a TD for use with an initialized DMA channel */
 412:main.c        ****     tdChanA = CyDmaTdAllocate();
 1126              		.loc 1 412 0
 1127 001a FFF7FEFF 		bl	CyDmaTdAllocate
 1128 001e 0346     		mov	r3, r0
 1129 0020 BB71     		strb	r3, [r7, #6]
 413:main.c        **** 
 414:main.c        ****     /* Configure the tdChanA to transfer 1 byte with no next TD */
 415:main.c        ****     CyDmaTdSetConfiguration(tdChanA, 1u, DMA_INVALID_TD, 0u);
 1130              		.loc 1 415 0
 1131 0022 B879     		ldrb	r0, [r7, #6]	@ zero_extendqisi2
 1132 0024 0023     		movs	r3, #0
 1133 0026 FF22     		movs	r2, #255
 1134 0028 0121     		movs	r1, #1
 1135 002a FFF7FEFF 		bl	CyDmaTdSetConfiguration
 416:main.c        **** 
 417:main.c        ****     /* Set the source address as ADC_DelSig and the destination as
ARM GAS  C:\Users\LUISAL~1\AppData\Local\Temp\ccPkF9u3.s 			page 29


 418:main.c        ****      * Filter Channel A.
 419:main.c        ****      */
 420:main.c        ****     CyDmaTdSetAddress(tdChanA, LO16((uint32)ADC_DelSig_DEC_SAMP_PTR), LO16((uint32)Filter_STAGEAH_P
 1136              		.loc 1 420 0
 1137 002e BB79     		ldrb	r3, [r7, #6]	@ zero_extendqisi2
 1138 0030 4CF2A272 		movw	r2, #51106
 1139 0034 44F61061 		movw	r1, #19984
 1140 0038 1846     		mov	r0, r3
 1141 003a FFF7FEFF 		bl	CyDmaTdSetAddress
 421:main.c        ****     
 422:main.c        ****     /* Set the source address as ADC_DelSig and the destination to be the Processing Unit
 423:main.c        ****      */
 424:main.c        ****     CyDmaTdSetAddress(tdChanA, LO16((uint32)ADC_DelSig_DEC_SAMP_PTR), goertezel_buffer);
 1142              		.loc 1 424 0
 1143 003e 0B4B     		ldr	r3, .L100
 1144 0040 1A88     		ldrh	r2, [r3]
 1145 0042 BB79     		ldrb	r3, [r7, #6]	@ zero_extendqisi2
 1146 0044 44F61061 		movw	r1, #19984
 1147 0048 1846     		mov	r0, r3
 1148 004a FFF7FEFF 		bl	CyDmaTdSetAddress
 425:main.c        **** 
 426:main.c        ****     /* Set tdChanA to be the initial TD associated with channelHandle */
 427:main.c        ****     CyDmaChSetInitialTd(channelHandle, tdChanA);
 1149              		.loc 1 427 0
 1150 004e BA79     		ldrb	r2, [r7, #6]	@ zero_extendqisi2
 1151 0050 FB79     		ldrb	r3, [r7, #7]	@ zero_extendqisi2
 1152 0052 1146     		mov	r1, r2
 1153 0054 1846     		mov	r0, r3
 1154 0056 FFF7FEFF 		bl	CyDmaChSetInitialTd
 428:main.c        **** 
 429:main.c        ****     /* Enable the DMA channel represented by channelHandle and preserve the TD */
 430:main.c        ****     CyDmaChEnable(channelHandle, 1u);
 1155              		.loc 1 430 0
 1156 005a FB79     		ldrb	r3, [r7, #7]	@ zero_extendqisi2
 1157 005c 0121     		movs	r1, #1
 1158 005e 1846     		mov	r0, r3
 1159 0060 FFF7FEFF 		bl	CyDmaChEnable
 431:main.c        **** }
 1160              		.loc 1 431 0
 1161 0064 00BF     		nop
 1162 0066 0837     		adds	r7, r7, #8
 1163              		.cfi_def_cfa_offset 8
 1164 0068 BD46     		mov	sp, r7
 1165              		.cfi_def_cfa_register 13
 1166              		@ sp needed
 1167 006a 80BD     		pop	{r7, pc}
 1168              	.L101:
 1169              		.align	2
 1170              	.L100:
 1171 006c 00000000 		.word	goertezel_buffer
 1172              		.cfi_endproc
 1173              	.LFE70:
 1174              		.size	DMA_Config, .-DMA_Config
 1175              		.text
 1176              	.Letext0:
 1177              		.file 2 "c:\\program files (x86)\\cypress\\psoc creator\\4.1\\psoc creator\\import\\gnu\\arm\\5.4.
 1178              		.file 3 "c:\\program files (x86)\\cypress\\psoc creator\\4.1\\psoc creator\\import\\gnu\\arm\\5.4.
ARM GAS  C:\Users\LUISAL~1\AppData\Local\Temp\ccPkF9u3.s 			page 30


 1179              		.file 4 "Generated_Source\\PSoC5/cytypes.h"
 1180              		.file 5 "Generated_Source\\PSoC5/core_cm3.h"