ARM GAS  C:\Users\fabis\AppData\Local\Temp\ccvALjuz.s 			page 1


   1              		.syntax unified
   2              		.cpu cortex-m0
   3              		.fpu softvfp
   4              		.eabi_attribute 20, 1
   5              		.eabi_attribute 21, 1
   6              		.eabi_attribute 23, 3
   7              		.eabi_attribute 24, 1
   8              		.eabi_attribute 25, 1
   9              		.eabi_attribute 26, 1
  10              		.eabi_attribute 30, 6
  11              		.eabi_attribute 34, 0
  12              		.eabi_attribute 18, 4
  13              		.thumb
  14              		.syntax unified
  15              		.file	"CyLFClk.c"
  16              		.text
  17              	.Ltext0:
  18              		.cfi_sections	.debug_frame
  19              		.bss
  20              		.align	2
  21              	lfclkPosedgeWdtCounter0Enabled:
  22 0000 00000000 		.space	4
  23              		.align	2
  24              	lfclkPosedgeWdtCounter0Mode:
  25 0004 00000000 		.space	4
  26              		.align	2
  27              	disableServicedIsr:
  28 0008 00000000 		.space	4
  29              		.data
  30              		.align	2
  31              		.type	wdtIsrMask, %object
  32              		.size	wdtIsrMask, 4
  33              	wdtIsrMask:
  34 0000 04040400 		.word	263172
  35              		.section	.rodata
  36              		.align	2
  37              		.type	counterIntMaskTbl, %object
  38              		.size	counterIntMaskTbl, 12
  39              	counterIntMaskTbl:
  40 0000 04000000 		.word	4
  41 0004 00040000 		.word	1024
  42 0008 00000400 		.word	262144
  43              		.bss
  44              		.align	2
  45              	cySysWdtCallback:
  46 000c 00000000 		.space	12
  46      00000000 
  46      00000000 
  47              		.section	.text.CySysClkIloStart,"ax",%progbits
  48              		.align	2
  49              		.global	CySysClkIloStart
  50              		.code	16
  51              		.thumb_func
  52              		.type	CySysClkIloStart, %function
  53              	CySysClkIloStart:
  54              	.LFB0:
  55              		.file 1 "Generated_Source\\PSoC4\\CyLFClk.c"
ARM GAS  C:\Users\fabis\AppData\Local\Temp\ccvALjuz.s 			page 2


   1:Generated_Source\PSoC4/CyLFClk.c **** /*******************************************************************************
   2:Generated_Source\PSoC4/CyLFClk.c **** * File Name: .c
   3:Generated_Source\PSoC4/CyLFClk.c **** * Version 1.0
   4:Generated_Source\PSoC4/CyLFClk.c **** *
   5:Generated_Source\PSoC4/CyLFClk.c **** * Description:
   6:Generated_Source\PSoC4/CyLFClk.c **** *  This file provides the source code to API for the cy_lfclk Component.
   7:Generated_Source\PSoC4/CyLFClk.c **** *
   8:Generated_Source\PSoC4/CyLFClk.c **** ********************************************************************************
   9:Generated_Source\PSoC4/CyLFClk.c **** * Copyright 2008-2015, Cypress Semiconductor Corporation.  All rights reserved.
  10:Generated_Source\PSoC4/CyLFClk.c **** * You may use this file only in accordance with the license, terms, conditions,
  11:Generated_Source\PSoC4/CyLFClk.c **** * disclaimers, and limitations in the end user license agreement accompanying
  12:Generated_Source\PSoC4/CyLFClk.c **** * the software package with which this file was provided.
  13:Generated_Source\PSoC4/CyLFClk.c **** *******************************************************************************/
  14:Generated_Source\PSoC4/CyLFClk.c **** 
  15:Generated_Source\PSoC4/CyLFClk.c **** 
  16:Generated_Source\PSoC4/CyLFClk.c **** #include "CyLFClk.h"
  17:Generated_Source\PSoC4/CyLFClk.c **** #include "CyLib.h"
  18:Generated_Source\PSoC4/CyLFClk.c **** 
  19:Generated_Source\PSoC4/CyLFClk.c **** 
  20:Generated_Source\PSoC4/CyLFClk.c **** #if (CY_IP_WCO)
  21:Generated_Source\PSoC4/CyLFClk.c ****     static uint32 CySysClkGetLfclkSource(void);
  22:Generated_Source\PSoC4/CyLFClk.c **** #endif /* (CY_IP_WCO) */
  23:Generated_Source\PSoC4/CyLFClk.c **** 
  24:Generated_Source\PSoC4/CyLFClk.c **** #if(CY_IP_SRSSV2)
  25:Generated_Source\PSoC4/CyLFClk.c ****     /* CySysClkLfclkPosedgeCatch() / CySysClkLfclkPosedgeRestore() */
  26:Generated_Source\PSoC4/CyLFClk.c ****     static uint32 lfclkPosedgeWdtCounter0Enabled = 0u;
  27:Generated_Source\PSoC4/CyLFClk.c ****     static uint32 lfclkPosedgeWdtCounter0Mode    = CY_SYS_WDT_MODE_NONE;
  28:Generated_Source\PSoC4/CyLFClk.c **** 
  29:Generated_Source\PSoC4/CyLFClk.c ****     static volatile uint32 disableServicedIsr = 0uL;
  30:Generated_Source\PSoC4/CyLFClk.c ****     static volatile uint32 wdtIsrMask = CY_SYS_WDT_COUNTER0_INT |\
  31:Generated_Source\PSoC4/CyLFClk.c ****                                         CY_SYS_WDT_COUNTER1_INT |\
  32:Generated_Source\PSoC4/CyLFClk.c ****                                         CY_SYS_WDT_COUNTER2_INT;
  33:Generated_Source\PSoC4/CyLFClk.c **** 
  34:Generated_Source\PSoC4/CyLFClk.c ****     static const uint32 counterIntMaskTbl[CY_WDT_NUM_OF_WDT] = {CY_SYS_WDT_COUNTER0_INT,
  35:Generated_Source\PSoC4/CyLFClk.c ****                                                                 CY_SYS_WDT_COUNTER1_INT,
  36:Generated_Source\PSoC4/CyLFClk.c ****                                                                 CY_SYS_WDT_COUNTER2_INT};
  37:Generated_Source\PSoC4/CyLFClk.c **** 
  38:Generated_Source\PSoC4/CyLFClk.c ****     static void CySysClkLfclkPosedgeCatch(void);
  39:Generated_Source\PSoC4/CyLFClk.c ****     static void CySysClkLfclkPosedgeRestore(void);
  40:Generated_Source\PSoC4/CyLFClk.c **** 
  41:Generated_Source\PSoC4/CyLFClk.c ****     static uint32 CySysWdtLocked(void);
  42:Generated_Source\PSoC4/CyLFClk.c ****     static uint32 CySysClkIloEnabled(void);
  43:Generated_Source\PSoC4/CyLFClk.c **** #endif /* (CY_IP_SRSSV2) */
  44:Generated_Source\PSoC4/CyLFClk.c **** 
  45:Generated_Source\PSoC4/CyLFClk.c **** #if(CY_IP_SRSSV2)
  46:Generated_Source\PSoC4/CyLFClk.c ****     static cyWdtCallback cySysWdtCallback[CY_WDT_NUM_OF_WDT] = {(void *)0, (void *)0, (void *)0};
  47:Generated_Source\PSoC4/CyLFClk.c **** #else
  48:Generated_Source\PSoC4/CyLFClk.c ****     static cyWdtCallback cySysWdtCallback = (void *)0;
  49:Generated_Source\PSoC4/CyLFClk.c **** #endif /* (CY_IP_SRSSV2) */
  50:Generated_Source\PSoC4/CyLFClk.c **** 
  51:Generated_Source\PSoC4/CyLFClk.c **** /*******************************************************************************
  52:Generated_Source\PSoC4/CyLFClk.c **** * Function Name: CySysClkIloStart
  53:Generated_Source\PSoC4/CyLFClk.c **** ********************************************************************************
  54:Generated_Source\PSoC4/CyLFClk.c **** *
  55:Generated_Source\PSoC4/CyLFClk.c **** * Summary:
  56:Generated_Source\PSoC4/CyLFClk.c **** *  Enables ILO. Refer to the device datasheet for the ILO startup time.
  57:Generated_Source\PSoC4/CyLFClk.c **** *
ARM GAS  C:\Users\fabis\AppData\Local\Temp\ccvALjuz.s 			page 3


  58:Generated_Source\PSoC4/CyLFClk.c **** * Parameters:
  59:Generated_Source\PSoC4/CyLFClk.c **** *  None
  60:Generated_Source\PSoC4/CyLFClk.c **** *
  61:Generated_Source\PSoC4/CyLFClk.c **** * Return:
  62:Generated_Source\PSoC4/CyLFClk.c **** *  None
  63:Generated_Source\PSoC4/CyLFClk.c **** *
  64:Generated_Source\PSoC4/CyLFClk.c **** *******************************************************************************/
  65:Generated_Source\PSoC4/CyLFClk.c **** void CySysClkIloStart(void)
  66:Generated_Source\PSoC4/CyLFClk.c **** {
  56              		.loc 1 66 0
  57              		.cfi_startproc
  58              		@ args = 0, pretend = 0, frame = 0
  59              		@ frame_needed = 1, uses_anonymous_args = 0
  60 0000 80B5     		push	{r7, lr}
  61              		.cfi_def_cfa_offset 8
  62              		.cfi_offset 7, -8
  63              		.cfi_offset 14, -4
  64 0002 00AF     		add	r7, sp, #0
  65              		.cfi_def_cfa_register 7
  67:Generated_Source\PSoC4/CyLFClk.c ****     CY_SYS_CLK_ILO_CONFIG_REG |= CY_SYS_CLK_ILO_CONFIG_ENABLE;
  66              		.loc 1 67 0
  67 0004 044B     		ldr	r3, .L2
  68 0006 044A     		ldr	r2, .L2
  69 0008 1268     		ldr	r2, [r2]
  70 000a 8021     		movs	r1, #128
  71 000c 0906     		lsls	r1, r1, #24
  72 000e 0A43     		orrs	r2, r1
  73 0010 1A60     		str	r2, [r3]
  68:Generated_Source\PSoC4/CyLFClk.c **** }
  74              		.loc 1 68 0
  75 0012 C046     		nop
  76 0014 BD46     		mov	sp, r7
  77              		@ sp needed
  78 0016 80BD     		pop	{r7, pc}
  79              	.L3:
  80              		.align	2
  81              	.L2:
  82 0018 04010B40 		.word	1074462980
  83              		.cfi_endproc
  84              	.LFE0:
  85              		.size	CySysClkIloStart, .-CySysClkIloStart
  86              		.section	.text.CySysClkIloStop,"ax",%progbits
  87              		.align	2
  88              		.global	CySysClkIloStop
  89              		.code	16
  90              		.thumb_func
  91              		.type	CySysClkIloStop, %function
  92              	CySysClkIloStop:
  93              	.LFB1:
  69:Generated_Source\PSoC4/CyLFClk.c **** 
  70:Generated_Source\PSoC4/CyLFClk.c **** 
  71:Generated_Source\PSoC4/CyLFClk.c **** /*******************************************************************************
  72:Generated_Source\PSoC4/CyLFClk.c **** * Function Name: CySysClkIloStop
  73:Generated_Source\PSoC4/CyLFClk.c **** ********************************************************************************
  74:Generated_Source\PSoC4/CyLFClk.c **** *
  75:Generated_Source\PSoC4/CyLFClk.c **** * Summary:
  76:Generated_Source\PSoC4/CyLFClk.c **** *  Disables ILO.
ARM GAS  C:\Users\fabis\AppData\Local\Temp\ccvALjuz.s 			page 4


  77:Generated_Source\PSoC4/CyLFClk.c **** *
  78:Generated_Source\PSoC4/CyLFClk.c **** * Parameters:
  79:Generated_Source\PSoC4/CyLFClk.c **** *  None.
  80:Generated_Source\PSoC4/CyLFClk.c **** *
  81:Generated_Source\PSoC4/CyLFClk.c **** * Return:
  82:Generated_Source\PSoC4/CyLFClk.c **** *  None.
  83:Generated_Source\PSoC4/CyLFClk.c **** *
  84:Generated_Source\PSoC4/CyLFClk.c **** * Side Effects:
  85:Generated_Source\PSoC4/CyLFClk.c **** *  This function has no effect if WDT is locked (CySysWdtLock() is
  86:Generated_Source\PSoC4/CyLFClk.c **** *  called). Call CySysWdtUnlock() to unlock WDT and stop ILO.
  87:Generated_Source\PSoC4/CyLFClk.c **** *
  88:Generated_Source\PSoC4/CyLFClk.c **** *  PSoC 4100 / PSoC 4200: Note that ILO is required for WDT's operation.
  89:Generated_Source\PSoC4/CyLFClk.c **** *  ILO is required for WDT operation.
  90:Generated_Source\PSoC4/CyLFClk.c **** *
  91:Generated_Source\PSoC4/CyLFClk.c **** *  PSoC 4100-BL / PSoC 4200-BL and PSoC 4100M / PSoC 4200M:
  92:Generated_Source\PSoC4/CyLFClk.c **** *  Stopping ILO affects the peripheral clocked by LFCLK, if
  93:Generated_Source\PSoC4/CyLFClk.c **** *  LFCLK is configured to be sourced by ILO.
  94:Generated_Source\PSoC4/CyLFClk.c **** *
  95:Generated_Source\PSoC4/CyLFClk.c **** *******************************************************************************/
  96:Generated_Source\PSoC4/CyLFClk.c **** void CySysClkIloStop(void)
  97:Generated_Source\PSoC4/CyLFClk.c **** {
  94              		.loc 1 97 0
  95              		.cfi_startproc
  96              		@ args = 0, pretend = 0, frame = 8
  97              		@ frame_needed = 1, uses_anonymous_args = 0
  98 0000 90B5     		push	{r4, r7, lr}
  99              		.cfi_def_cfa_offset 12
 100              		.cfi_offset 4, -12
 101              		.cfi_offset 7, -8
 102              		.cfi_offset 14, -4
 103 0002 83B0     		sub	sp, sp, #12
 104              		.cfi_def_cfa_offset 24
 105 0004 00AF     		add	r7, sp, #0
 106              		.cfi_def_cfa_register 7
  98:Generated_Source\PSoC4/CyLFClk.c ****     #if(CY_IP_SRSSV2)
  99:Generated_Source\PSoC4/CyLFClk.c ****         uint8  interruptState;
 100:Generated_Source\PSoC4/CyLFClk.c **** 
 101:Generated_Source\PSoC4/CyLFClk.c ****         /* Do nothing if WDT is locked or ILO is disabled */
 102:Generated_Source\PSoC4/CyLFClk.c ****         if (0u == CySysWdtLocked())
 107              		.loc 1 102 0
 108 0006 FFF7FEFF 		bl	CySysWdtLocked
 109 000a 031E     		subs	r3, r0, #0
 110 000c 17D1     		bne	.L6
 103:Generated_Source\PSoC4/CyLFClk.c ****         {
 104:Generated_Source\PSoC4/CyLFClk.c ****             if (0u != CySysClkIloEnabled())
 111              		.loc 1 104 0
 112 000e FFF7FEFF 		bl	CySysClkIloEnabled
 113 0012 031E     		subs	r3, r0, #0
 114 0014 13D0     		beq	.L6
 105:Generated_Source\PSoC4/CyLFClk.c ****             {
 106:Generated_Source\PSoC4/CyLFClk.c **** 
 107:Generated_Source\PSoC4/CyLFClk.c ****             #if (CY_IP_WCO)
 108:Generated_Source\PSoC4/CyLFClk.c ****                 if (CY_SYS_CLK_LFCLK_SRC_ILO == CySysClkGetLfclkSource())
 109:Generated_Source\PSoC4/CyLFClk.c ****                 {
 110:Generated_Source\PSoC4/CyLFClk.c ****             #endif /* (CY_IP_WCO) */
 111:Generated_Source\PSoC4/CyLFClk.c **** 
 112:Generated_Source\PSoC4/CyLFClk.c ****                 interruptState = CyEnterCriticalSection();
ARM GAS  C:\Users\fabis\AppData\Local\Temp\ccvALjuz.s 			page 5


 115              		.loc 1 112 0
 116 0016 FC1D     		adds	r4, r7, #7
 117 0018 FFF7FEFF 		bl	CyEnterCriticalSection
 118 001c 0300     		movs	r3, r0
 119 001e 2370     		strb	r3, [r4]
 113:Generated_Source\PSoC4/CyLFClk.c ****                 CySysClkLfclkPosedgeCatch();
 120              		.loc 1 113 0
 121 0020 FFF7FEFF 		bl	CySysClkLfclkPosedgeCatch
 114:Generated_Source\PSoC4/CyLFClk.c ****                 CY_SYS_CLK_ILO_CONFIG_REG &= ( uint32 ) ( ~( uint32 )CY_SYS_CLK_ILO_CONFIG_ENABLE);
 122              		.loc 1 114 0
 123 0024 084B     		ldr	r3, .L7
 124 0026 084A     		ldr	r2, .L7
 125 0028 1268     		ldr	r2, [r2]
 126 002a 5200     		lsls	r2, r2, #1
 127 002c 5208     		lsrs	r2, r2, #1
 128 002e 1A60     		str	r2, [r3]
 115:Generated_Source\PSoC4/CyLFClk.c ****                 CySysClkLfclkPosedgeRestore();
 129              		.loc 1 115 0
 130 0030 FFF7FEFF 		bl	CySysClkLfclkPosedgeRestore
 116:Generated_Source\PSoC4/CyLFClk.c ****                 CyExitCriticalSection(interruptState);
 131              		.loc 1 116 0
 132 0034 FB1D     		adds	r3, r7, #7
 133 0036 1B78     		ldrb	r3, [r3]
 134 0038 1800     		movs	r0, r3
 135 003a FFF7FEFF 		bl	CyExitCriticalSection
 136              	.L6:
 117:Generated_Source\PSoC4/CyLFClk.c **** 
 118:Generated_Source\PSoC4/CyLFClk.c ****             #if (CY_IP_WCO)
 119:Generated_Source\PSoC4/CyLFClk.c ****                 }
 120:Generated_Source\PSoC4/CyLFClk.c ****                 else /* Safe to disable - shortened pulse does not impact peripheral */
 121:Generated_Source\PSoC4/CyLFClk.c ****                 {
 122:Generated_Source\PSoC4/CyLFClk.c ****                     CY_SYS_CLK_ILO_CONFIG_REG &= ( uint32 ) ( ~( uint32 )CY_SYS_CLK_ILO_CONFIG_ENAB
 123:Generated_Source\PSoC4/CyLFClk.c ****                 }
 124:Generated_Source\PSoC4/CyLFClk.c ****             #endif /* (CY_IP_WCO) */
 125:Generated_Source\PSoC4/CyLFClk.c **** 
 126:Generated_Source\PSoC4/CyLFClk.c ****             }
 127:Generated_Source\PSoC4/CyLFClk.c ****         }
 128:Generated_Source\PSoC4/CyLFClk.c ****     #else
 129:Generated_Source\PSoC4/CyLFClk.c ****         CY_SYS_CLK_ILO_CONFIG_REG &= ( uint32 ) ( ~( uint32 )CY_SYS_CLK_ILO_CONFIG_ENABLE);
 130:Generated_Source\PSoC4/CyLFClk.c ****     #endif /* (CY_IP_SRSSV2) */
 131:Generated_Source\PSoC4/CyLFClk.c **** }
 137              		.loc 1 131 0
 138 003e C046     		nop
 139 0040 BD46     		mov	sp, r7
 140 0042 03B0     		add	sp, sp, #12
 141              		@ sp needed
 142 0044 90BD     		pop	{r4, r7, pc}
 143              	.L8:
 144 0046 C046     		.align	2
 145              	.L7:
 146 0048 04010B40 		.word	1074462980
 147              		.cfi_endproc
 148              	.LFE1:
 149              		.size	CySysClkIloStop, .-CySysClkIloStop
 150              		.section	.text.CySysClkIloEnabled,"ax",%progbits
 151              		.align	2
 152              		.code	16
ARM GAS  C:\Users\fabis\AppData\Local\Temp\ccvALjuz.s 			page 6


 153              		.thumb_func
 154              		.type	CySysClkIloEnabled, %function
 155              	CySysClkIloEnabled:
 156              	.LFB2:
 132:Generated_Source\PSoC4/CyLFClk.c **** 
 133:Generated_Source\PSoC4/CyLFClk.c **** #if(CY_IP_SRSSV2)
 134:Generated_Source\PSoC4/CyLFClk.c ****     /*******************************************************************************
 135:Generated_Source\PSoC4/CyLFClk.c ****     * Function Name: CySysClkIloEnabled
 136:Generated_Source\PSoC4/CyLFClk.c ****     ********************************************************************************
 137:Generated_Source\PSoC4/CyLFClk.c ****     *
 138:Generated_Source\PSoC4/CyLFClk.c ****     * Summary:
 139:Generated_Source\PSoC4/CyLFClk.c ****     *  Reports the ILO enable state.
 140:Generated_Source\PSoC4/CyLFClk.c ****     *
 141:Generated_Source\PSoC4/CyLFClk.c ****     * Parameters:
 142:Generated_Source\PSoC4/CyLFClk.c ****     *  None.
 143:Generated_Source\PSoC4/CyLFClk.c ****     *
 144:Generated_Source\PSoC4/CyLFClk.c ****     * Return:
 145:Generated_Source\PSoC4/CyLFClk.c ****     *  1 if ILO is enabled, and 0 if ILO is disabled.
 146:Generated_Source\PSoC4/CyLFClk.c ****     *
 147:Generated_Source\PSoC4/CyLFClk.c ****     *******************************************************************************/
 148:Generated_Source\PSoC4/CyLFClk.c ****     static uint32 CySysClkIloEnabled(void)
 149:Generated_Source\PSoC4/CyLFClk.c ****     {
 157              		.loc 1 149 0
 158              		.cfi_startproc
 159              		@ args = 0, pretend = 0, frame = 0
 160              		@ frame_needed = 1, uses_anonymous_args = 0
 161 0000 80B5     		push	{r7, lr}
 162              		.cfi_def_cfa_offset 8
 163              		.cfi_offset 7, -8
 164              		.cfi_offset 14, -4
 165 0002 00AF     		add	r7, sp, #0
 166              		.cfi_def_cfa_register 7
 150:Generated_Source\PSoC4/CyLFClk.c ****         /* Prohibits writing to WDT registers and ILO/WCO registers when not equal to 0 */
 151:Generated_Source\PSoC4/CyLFClk.c ****         return ((0u != (CY_SYS_CLK_ILO_CONFIG_REG & (uint32)(CY_SYS_CLK_ILO_CONFIG_ENABLE))) ?
 167              		.loc 1 151 0
 168 0004 044B     		ldr	r3, .L13
 169 0006 1B68     		ldr	r3, [r3]
 152:Generated_Source\PSoC4/CyLFClk.c ****             (uint32) 1u :
 170              		.loc 1 152 0
 171 0008 002B     		cmp	r3, #0
 172 000a 01DA     		bge	.L10
 173              		.loc 1 152 0 is_stmt 0 discriminator 1
 174 000c 0123     		movs	r3, #1
 151:Generated_Source\PSoC4/CyLFClk.c ****             (uint32) 1u :
 175              		.loc 1 151 0 is_stmt 1 discriminator 1
 176 000e 00E0     		b	.L12
 177              	.L10:
 178              		.loc 1 152 0 discriminator 2
 179 0010 0023     		movs	r3, #0
 180              	.L12:
 153:Generated_Source\PSoC4/CyLFClk.c ****             (uint32) 0u);
 154:Generated_Source\PSoC4/CyLFClk.c ****     }
 181              		.loc 1 154 0 discriminator 1
 182 0012 1800     		movs	r0, r3
 183 0014 BD46     		mov	sp, r7
 184              		@ sp needed
 185 0016 80BD     		pop	{r7, pc}
ARM GAS  C:\Users\fabis\AppData\Local\Temp\ccvALjuz.s 			page 7


 186              	.L14:
 187              		.align	2
 188              	.L13:
 189 0018 04010B40 		.word	1074462980
 190              		.cfi_endproc
 191              	.LFE2:
 192              		.size	CySysClkIloEnabled, .-CySysClkIloEnabled
 193              		.section	.text.CySysWdtLock,"ax",%progbits
 194              		.align	2
 195              		.global	CySysWdtLock
 196              		.code	16
 197              		.thumb_func
 198              		.type	CySysWdtLock, %function
 199              	CySysWdtLock:
 200              	.LFB3:
 155:Generated_Source\PSoC4/CyLFClk.c **** #endif /* (CY_IP_SRSSV2) */
 156:Generated_Source\PSoC4/CyLFClk.c **** 
 157:Generated_Source\PSoC4/CyLFClk.c **** 
 158:Generated_Source\PSoC4/CyLFClk.c **** /*******************************************************************************
 159:Generated_Source\PSoC4/CyLFClk.c **** * Function Name: CySysClkGetLfclkSource
 160:Generated_Source\PSoC4/CyLFClk.c **** ********************************************************************************
 161:Generated_Source\PSoC4/CyLFClk.c **** *
 162:Generated_Source\PSoC4/CyLFClk.c **** * Summary:
 163:Generated_Source\PSoC4/CyLFClk.c **** *  Gets the clock source for the LFCLK clock.
 164:Generated_Source\PSoC4/CyLFClk.c **** *  The function is applicable only for PSoC 4100-BL and PSoC 4200-BL.
 165:Generated_Source\PSoC4/CyLFClk.c **** *
 166:Generated_Source\PSoC4/CyLFClk.c **** * Parameters:
 167:Generated_Source\PSoC4/CyLFClk.c **** *  None.
 168:Generated_Source\PSoC4/CyLFClk.c **** *
 169:Generated_Source\PSoC4/CyLFClk.c **** * Return:
 170:Generated_Source\PSoC4/CyLFClk.c **** *  The LFCLK source:
 171:Generated_Source\PSoC4/CyLFClk.c **** *   CY_SYS_CLK_LFCLK_SRC_ILO    Internal Low Frequency (32 kHz) Oscillator (ILO)
 172:Generated_Source\PSoC4/CyLFClk.c **** *   CY_SYS_CLK_LFCLK_SRC_WCO    Low Frequency Watch Crystal Oscillator (WCO)
 173:Generated_Source\PSoC4/CyLFClk.c **** *
 174:Generated_Source\PSoC4/CyLFClk.c **** *******************************************************************************/
 175:Generated_Source\PSoC4/CyLFClk.c **** #if (CY_IP_WCO)
 176:Generated_Source\PSoC4/CyLFClk.c ****     static uint32 CySysClkGetLfclkSource(void)
 177:Generated_Source\PSoC4/CyLFClk.c ****     {
 178:Generated_Source\PSoC4/CyLFClk.c ****         uint32 lfclkSource;
 179:Generated_Source\PSoC4/CyLFClk.c ****         lfclkSource = CY_SYS_WDT_CONFIG_REG & CY_SYS_CLK_LFCLK_SEL_MASK;
 180:Generated_Source\PSoC4/CyLFClk.c ****         return (lfclkSource);
 181:Generated_Source\PSoC4/CyLFClk.c ****     }
 182:Generated_Source\PSoC4/CyLFClk.c **** #endif /* (CY_IP_WCO) */
 183:Generated_Source\PSoC4/CyLFClk.c **** 
 184:Generated_Source\PSoC4/CyLFClk.c **** 
 185:Generated_Source\PSoC4/CyLFClk.c **** /*******************************************************************************
 186:Generated_Source\PSoC4/CyLFClk.c **** * Function Name: CySysClkSetLfclkSource
 187:Generated_Source\PSoC4/CyLFClk.c **** ********************************************************************************
 188:Generated_Source\PSoC4/CyLFClk.c **** *
 189:Generated_Source\PSoC4/CyLFClk.c **** * Summary:
 190:Generated_Source\PSoC4/CyLFClk.c **** *  Sets the clock source for the LFCLK clock.
 191:Generated_Source\PSoC4/CyLFClk.c **** *
 192:Generated_Source\PSoC4/CyLFClk.c **** *  The switch between LFCLK sources must be done between the positive edges of
 193:Generated_Source\PSoC4/CyLFClk.c **** *  LFCLK, because the glitch risk is around the LFCLK positive edge. To ensure
 194:Generated_Source\PSoC4/CyLFClk.c **** *  that the switch can be done safely, the WDT counter value is read until it
 195:Generated_Source\PSoC4/CyLFClk.c **** *  changes.
 196:Generated_Source\PSoC4/CyLFClk.c **** *
ARM GAS  C:\Users\fabis\AppData\Local\Temp\ccvALjuz.s 			page 8


 197:Generated_Source\PSoC4/CyLFClk.c **** *  That means that the positive edge just finished and the switch is performed.
 198:Generated_Source\PSoC4/CyLFClk.c **** *  The enabled WDT counter is used for that purpose. If no counters are enabled,
 199:Generated_Source\PSoC4/CyLFClk.c **** *  counter 0 is enabled. And after the LFCLK source is switched, counter 0
 200:Generated_Source\PSoC4/CyLFClk.c **** *  configuration is restored.
 201:Generated_Source\PSoC4/CyLFClk.c **** *
 202:Generated_Source\PSoC4/CyLFClk.c **** *  The function is applicable only for PSoC 4100-BL and PSoC 4200-BL.
 203:Generated_Source\PSoC4/CyLFClk.c **** *
 204:Generated_Source\PSoC4/CyLFClk.c **** * Parameters:
 205:Generated_Source\PSoC4/CyLFClk.c **** *  source: One of the available LFCLK sources.
 206:Generated_Source\PSoC4/CyLFClk.c **** *   CY_SYS_CLK_LFCLK_SRC_ILO    Internal Low Frequency (32 kHz) Oscillator (ILO)
 207:Generated_Source\PSoC4/CyLFClk.c **** *   CY_SYS_CLK_LFCLK_SRC_WCO    Low Frequency Watch Crystal Oscillator (WCO)
 208:Generated_Source\PSoC4/CyLFClk.c **** *
 209:Generated_Source\PSoC4/CyLFClk.c **** * Return:
 210:Generated_Source\PSoC4/CyLFClk.c **** *  None
 211:Generated_Source\PSoC4/CyLFClk.c **** *
 212:Generated_Source\PSoC4/CyLFClk.c **** * Side Effects:
 213:Generated_Source\PSoC4/CyLFClk.c **** *  This function has no effect if WDT is locked (CySysWdtLock() is
 214:Generated_Source\PSoC4/CyLFClk.c **** *  called). Call CySysWdtUnlock() to unlock WDT.
 215:Generated_Source\PSoC4/CyLFClk.c **** *
 216:Generated_Source\PSoC4/CyLFClk.c **** *  Both the current source and the new source must be running and stable before
 217:Generated_Source\PSoC4/CyLFClk.c **** *  calling this function.
 218:Generated_Source\PSoC4/CyLFClk.c **** *
 219:Generated_Source\PSoC4/CyLFClk.c **** *  Changing the LFCLK clock source may change the LFCLK clock frequency and
 220:Generated_Source\PSoC4/CyLFClk.c **** *  affect the functionality that uses this clock. For example, watchdog timer
 221:Generated_Source\PSoC4/CyLFClk.c **** *  "uses this clock" or "this clock uses" (WDT) is clocked by LFCLK.
 222:Generated_Source\PSoC4/CyLFClk.c **** *
 223:Generated_Source\PSoC4/CyLFClk.c **** *******************************************************************************/
 224:Generated_Source\PSoC4/CyLFClk.c **** #if (CY_IP_WCO)
 225:Generated_Source\PSoC4/CyLFClk.c ****     void CySysClkSetLfclkSource(uint32 source)
 226:Generated_Source\PSoC4/CyLFClk.c ****     {
 227:Generated_Source\PSoC4/CyLFClk.c ****         uint8  interruptState;
 228:Generated_Source\PSoC4/CyLFClk.c **** 
 229:Generated_Source\PSoC4/CyLFClk.c ****         if (CySysClkGetLfclkSource() != source)
 230:Generated_Source\PSoC4/CyLFClk.c ****         {
 231:Generated_Source\PSoC4/CyLFClk.c ****             interruptState = CyEnterCriticalSection();
 232:Generated_Source\PSoC4/CyLFClk.c **** 
 233:Generated_Source\PSoC4/CyLFClk.c ****             CySysClkLfclkPosedgeCatch();
 234:Generated_Source\PSoC4/CyLFClk.c **** 
 235:Generated_Source\PSoC4/CyLFClk.c ****             CY_SYS_WDT_CONFIG_REG = (CY_SYS_WDT_CONFIG_REG & (uint32)(~CY_SYS_CLK_LFCLK_SEL_MASK)) 
 236:Generated_Source\PSoC4/CyLFClk.c ****                                     (source & CY_SYS_CLK_LFCLK_SEL_MASK);
 237:Generated_Source\PSoC4/CyLFClk.c **** 
 238:Generated_Source\PSoC4/CyLFClk.c ****             CySysClkLfclkPosedgeRestore();
 239:Generated_Source\PSoC4/CyLFClk.c **** 
 240:Generated_Source\PSoC4/CyLFClk.c ****             CyExitCriticalSection(interruptState);
 241:Generated_Source\PSoC4/CyLFClk.c ****         }
 242:Generated_Source\PSoC4/CyLFClk.c ****     }
 243:Generated_Source\PSoC4/CyLFClk.c **** #endif /* (CY_IP_WCO) */
 244:Generated_Source\PSoC4/CyLFClk.c **** 
 245:Generated_Source\PSoC4/CyLFClk.c **** 
 246:Generated_Source\PSoC4/CyLFClk.c **** #if (CY_IP_WCO)
 247:Generated_Source\PSoC4/CyLFClk.c ****     /*******************************************************************************
 248:Generated_Source\PSoC4/CyLFClk.c ****     * Function Name: CySysClkWcoStart
 249:Generated_Source\PSoC4/CyLFClk.c ****     ********************************************************************************
 250:Generated_Source\PSoC4/CyLFClk.c ****     *
 251:Generated_Source\PSoC4/CyLFClk.c ****     * Summary:
 252:Generated_Source\PSoC4/CyLFClk.c ****     *  Enables Watch Crystal Oscillator (WCO). WCO is used as a source for
 253:Generated_Source\PSoC4/CyLFClk.c ****     *  LFCLK.  Similar to ILO, WCO is also available in all modes except Hibernate
ARM GAS  C:\Users\fabis\AppData\Local\Temp\ccvALjuz.s 			page 9


 254:Generated_Source\PSoC4/CyLFClk.c ****     *  and Stop modes.
 255:Generated_Source\PSoC4/CyLFClk.c ****     *
 256:Generated_Source\PSoC4/CyLFClk.c ****     *  WCO is always enabled in High Power Mode (HPM). Refer to the device
 257:Generated_Source\PSoC4/CyLFClk.c ****     *  datasheet for the  WCO startup time. Once WCO becomes stable it can be
 258:Generated_Source\PSoC4/CyLFClk.c ****     *  switched to Low Power Mode (LPM). Note that oscillator can be unstable
 259:Generated_Source\PSoC4/CyLFClk.c ****     *  during a switch and hence its output should not be used at that moment.
 260:Generated_Source\PSoC4/CyLFClk.c ****     *
 261:Generated_Source\PSoC4/CyLFClk.c ****     *  The CySysClkWcoSetPowerMode() function configures the WCO power mode.
 262:Generated_Source\PSoC4/CyLFClk.c ****     *
 263:Generated_Source\PSoC4/CyLFClk.c ****     * Parameters:
 264:Generated_Source\PSoC4/CyLFClk.c ****     *  None.
 265:Generated_Source\PSoC4/CyLFClk.c ****     *
 266:Generated_Source\PSoC4/CyLFClk.c ****     * Return:
 267:Generated_Source\PSoC4/CyLFClk.c ****     *  None.
 268:Generated_Source\PSoC4/CyLFClk.c ****     *
 269:Generated_Source\PSoC4/CyLFClk.c ****     *******************************************************************************/
 270:Generated_Source\PSoC4/CyLFClk.c ****     void CySysClkWcoStart(void)
 271:Generated_Source\PSoC4/CyLFClk.c ****     {
 272:Generated_Source\PSoC4/CyLFClk.c ****         CySysClkWcoSetHighPowerMode();
 273:Generated_Source\PSoC4/CyLFClk.c ****         CY_SYS_CLK_WCO_CONFIG_REG |= CY_SYS_CLK_WCO_CONFIG_LPM_ENABLE;
 274:Generated_Source\PSoC4/CyLFClk.c ****     }
 275:Generated_Source\PSoC4/CyLFClk.c **** 
 276:Generated_Source\PSoC4/CyLFClk.c **** 
 277:Generated_Source\PSoC4/CyLFClk.c ****     /*******************************************************************************
 278:Generated_Source\PSoC4/CyLFClk.c ****     * Function Name: CySysClkWcoStop
 279:Generated_Source\PSoC4/CyLFClk.c ****     ********************************************************************************
 280:Generated_Source\PSoC4/CyLFClk.c ****     *
 281:Generated_Source\PSoC4/CyLFClk.c ****     * Summary:
 282:Generated_Source\PSoC4/CyLFClk.c ****     *  Disables the 32KHz Crystal Oscillator.
 283:Generated_Source\PSoC4/CyLFClk.c ****     *
 284:Generated_Source\PSoC4/CyLFClk.c ****     * Parameters:
 285:Generated_Source\PSoC4/CyLFClk.c ****     *  None.
 286:Generated_Source\PSoC4/CyLFClk.c ****     *
 287:Generated_Source\PSoC4/CyLFClk.c ****     * Return:
 288:Generated_Source\PSoC4/CyLFClk.c ****     *  None.
 289:Generated_Source\PSoC4/CyLFClk.c ****     *
 290:Generated_Source\PSoC4/CyLFClk.c ****     *******************************************************************************/
 291:Generated_Source\PSoC4/CyLFClk.c ****     void  CySysClkWcoStop(void)
 292:Generated_Source\PSoC4/CyLFClk.c ****     {
 293:Generated_Source\PSoC4/CyLFClk.c ****         uint8  interruptState;
 294:Generated_Source\PSoC4/CyLFClk.c **** 
 295:Generated_Source\PSoC4/CyLFClk.c ****         if (0u != CySysClkWcoEnabled())
 296:Generated_Source\PSoC4/CyLFClk.c ****         {
 297:Generated_Source\PSoC4/CyLFClk.c **** 
 298:Generated_Source\PSoC4/CyLFClk.c ****             if (CY_SYS_CLK_LFCLK_SRC_WCO == CySysClkGetLfclkSource())
 299:Generated_Source\PSoC4/CyLFClk.c ****             {
 300:Generated_Source\PSoC4/CyLFClk.c ****                 interruptState = CyEnterCriticalSection();
 301:Generated_Source\PSoC4/CyLFClk.c ****                 CySysClkLfclkPosedgeCatch();
 302:Generated_Source\PSoC4/CyLFClk.c ****                 CY_SYS_CLK_WCO_CONFIG_REG &= (uint32) ~CY_SYS_CLK_WCO_CONFIG_LPM_ENABLE;
 303:Generated_Source\PSoC4/CyLFClk.c ****                 CySysClkLfclkPosedgeRestore();
 304:Generated_Source\PSoC4/CyLFClk.c ****                 CyExitCriticalSection(interruptState);
 305:Generated_Source\PSoC4/CyLFClk.c ****             }
 306:Generated_Source\PSoC4/CyLFClk.c ****             else /* Safe to disable - shortened pulse does not impact peripheral */
 307:Generated_Source\PSoC4/CyLFClk.c ****             {
 308:Generated_Source\PSoC4/CyLFClk.c ****                 CY_SYS_CLK_WCO_CONFIG_REG &= (uint32) ~CY_SYS_CLK_WCO_CONFIG_LPM_ENABLE;
 309:Generated_Source\PSoC4/CyLFClk.c ****             }
 310:Generated_Source\PSoC4/CyLFClk.c ****         } /* Otherwise do nothing. WCO configuration cannot be changed. */
ARM GAS  C:\Users\fabis\AppData\Local\Temp\ccvALjuz.s 			page 10


 311:Generated_Source\PSoC4/CyLFClk.c ****     }
 312:Generated_Source\PSoC4/CyLFClk.c **** 
 313:Generated_Source\PSoC4/CyLFClk.c **** 
 314:Generated_Source\PSoC4/CyLFClk.c ****     /*******************************************************************************
 315:Generated_Source\PSoC4/CyLFClk.c ****     * Function Name: CySysClkWcoEnabled
 316:Generated_Source\PSoC4/CyLFClk.c ****     ********************************************************************************
 317:Generated_Source\PSoC4/CyLFClk.c ****     *
 318:Generated_Source\PSoC4/CyLFClk.c ****     * Summary:
 319:Generated_Source\PSoC4/CyLFClk.c ****     *  Reports the WCO enable state.
 320:Generated_Source\PSoC4/CyLFClk.c ****     *
 321:Generated_Source\PSoC4/CyLFClk.c ****     * Parameters:
 322:Generated_Source\PSoC4/CyLFClk.c ****     *  None.
 323:Generated_Source\PSoC4/CyLFClk.c ****     *
 324:Generated_Source\PSoC4/CyLFClk.c ****     * Return:
 325:Generated_Source\PSoC4/CyLFClk.c ****     *  1 if WCO is enabled, and 0 if WCO is disabled.
 326:Generated_Source\PSoC4/CyLFClk.c ****     *
 327:Generated_Source\PSoC4/CyLFClk.c ****     *******************************************************************************/
 328:Generated_Source\PSoC4/CyLFClk.c ****     uint32 CySysClkWcoEnabled(void)
 329:Generated_Source\PSoC4/CyLFClk.c ****     {
 330:Generated_Source\PSoC4/CyLFClk.c ****         return ((0u != (CY_SYS_CLK_WCO_CONFIG_REG & (uint32)(CY_SYS_CLK_WCO_CONFIG_LPM_ENABLE))) ?
 331:Generated_Source\PSoC4/CyLFClk.c ****                 (uint32) 1u :
 332:Generated_Source\PSoC4/CyLFClk.c ****                 (uint32) 0u);
 333:Generated_Source\PSoC4/CyLFClk.c ****     }
 334:Generated_Source\PSoC4/CyLFClk.c **** 
 335:Generated_Source\PSoC4/CyLFClk.c **** 
 336:Generated_Source\PSoC4/CyLFClk.c ****     /*******************************************************************************
 337:Generated_Source\PSoC4/CyLFClk.c ****     * Function Name: CySysClkWcoSetPowerMode
 338:Generated_Source\PSoC4/CyLFClk.c ****     ********************************************************************************
 339:Generated_Source\PSoC4/CyLFClk.c ****     *
 340:Generated_Source\PSoC4/CyLFClk.c ****     * Summary:
 341:Generated_Source\PSoC4/CyLFClk.c ****     *  Sets the power mode for the 32 KHz WCO.
 342:Generated_Source\PSoC4/CyLFClk.c ****     *
 343:Generated_Source\PSoC4/CyLFClk.c ****     * Parameters:
 344:Generated_Source\PSoC4/CyLFClk.c ****     *  uint32 mode:
 345:Generated_Source\PSoC4/CyLFClk.c ****     *   CY_SYS_CLK_WCO_HPM  - The High Power mode
 346:Generated_Source\PSoC4/CyLFClk.c ****     *   CY_SYS_CLK_WCO_LPM  - The Low Power mode(not applicable for
 347:Generated_Source\PSoC4/CyLFClk.c ****     *                         PSoC 4100M / PSoC 4200M devices)
 348:Generated_Source\PSoC4/CyLFClk.c ****     *
 349:Generated_Source\PSoC4/CyLFClk.c ****     * Return:
 350:Generated_Source\PSoC4/CyLFClk.c ****     *  A previous power mode. The same as the parameters.
 351:Generated_Source\PSoC4/CyLFClk.c ****     *
 352:Generated_Source\PSoC4/CyLFClk.c ****     * Note:
 353:Generated_Source\PSoC4/CyLFClk.c ****     *  The WCO Low power mode is not applicable for the PSoC 4100M/PSoC 4200M
 354:Generated_Source\PSoC4/CyLFClk.c ****     *  devices.
 355:Generated_Source\PSoC4/CyLFClk.c ****     *
 356:Generated_Source\PSoC4/CyLFClk.c ****     *******************************************************************************/
 357:Generated_Source\PSoC4/CyLFClk.c ****     uint32 CySysClkWcoSetPowerMode(uint32 mode)
 358:Generated_Source\PSoC4/CyLFClk.c ****     {
 359:Generated_Source\PSoC4/CyLFClk.c ****         uint32 status;
 360:Generated_Source\PSoC4/CyLFClk.c **** 
 361:Generated_Source\PSoC4/CyLFClk.c ****         status = CY_SYS_CLK_WCO_CONFIG_REG & CY_SYS_CLK_WCO_CONFIG_LPM_EN;
 362:Generated_Source\PSoC4/CyLFClk.c **** 
 363:Generated_Source\PSoC4/CyLFClk.c ****         switch(mode)
 364:Generated_Source\PSoC4/CyLFClk.c ****         {
 365:Generated_Source\PSoC4/CyLFClk.c ****         case CY_SYS_CLK_WCO_HPM:
 366:Generated_Source\PSoC4/CyLFClk.c ****                 CySysClkWcoSetHighPowerMode();
 367:Generated_Source\PSoC4/CyLFClk.c ****             break;
ARM GAS  C:\Users\fabis\AppData\Local\Temp\ccvALjuz.s 			page 11


 368:Generated_Source\PSoC4/CyLFClk.c **** 
 369:Generated_Source\PSoC4/CyLFClk.c ****         #if(!CY_PSOC4_4100M && !CY_PSOC4_4200M)
 370:Generated_Source\PSoC4/CyLFClk.c ****             case CY_SYS_CLK_WCO_LPM:
 371:Generated_Source\PSoC4/CyLFClk.c ****                     CySysClkWcoSetLowPowerMode();
 372:Generated_Source\PSoC4/CyLFClk.c ****                 break;
 373:Generated_Source\PSoC4/CyLFClk.c ****         #endif /* (!CY_PSOC4_4100M && !CY_PSOC4_4200M) */
 374:Generated_Source\PSoC4/CyLFClk.c **** 
 375:Generated_Source\PSoC4/CyLFClk.c ****         default:
 376:Generated_Source\PSoC4/CyLFClk.c ****             CYASSERT(0u != 0u);
 377:Generated_Source\PSoC4/CyLFClk.c ****             break;
 378:Generated_Source\PSoC4/CyLFClk.c ****         }
 379:Generated_Source\PSoC4/CyLFClk.c **** 
 380:Generated_Source\PSoC4/CyLFClk.c ****         return (status);
 381:Generated_Source\PSoC4/CyLFClk.c ****     }
 382:Generated_Source\PSoC4/CyLFClk.c **** 
 383:Generated_Source\PSoC4/CyLFClk.c **** #endif  /* (CY_IP_WCO) */
 384:Generated_Source\PSoC4/CyLFClk.c **** 
 385:Generated_Source\PSoC4/CyLFClk.c **** 
 386:Generated_Source\PSoC4/CyLFClk.c **** #if(CY_IP_SRSSV2)
 387:Generated_Source\PSoC4/CyLFClk.c **** 
 388:Generated_Source\PSoC4/CyLFClk.c **** 
 389:Generated_Source\PSoC4/CyLFClk.c ****     /*******************************************************************************
 390:Generated_Source\PSoC4/CyLFClk.c ****     * Function Name: CySysWdtLock
 391:Generated_Source\PSoC4/CyLFClk.c ****     ********************************************************************************
 392:Generated_Source\PSoC4/CyLFClk.c ****     *
 393:Generated_Source\PSoC4/CyLFClk.c ****     * Summary:
 394:Generated_Source\PSoC4/CyLFClk.c ****     *  Locks out configuration changes to the Watchdog timer registers and ILO
 395:Generated_Source\PSoC4/CyLFClk.c ****     *  configuration register.
 396:Generated_Source\PSoC4/CyLFClk.c ****     *
 397:Generated_Source\PSoC4/CyLFClk.c ****     * Parameters:
 398:Generated_Source\PSoC4/CyLFClk.c ****     *  None.
 399:Generated_Source\PSoC4/CyLFClk.c ****     *
 400:Generated_Source\PSoC4/CyLFClk.c ****     * Return:
 401:Generated_Source\PSoC4/CyLFClk.c ****     *  None.
 402:Generated_Source\PSoC4/CyLFClk.c ****     *
 403:Generated_Source\PSoC4/CyLFClk.c ****     * Side effects:
 404:Generated_Source\PSoC4/CyLFClk.c ****     *  After this function is called, ILO clock can't be disabled until
 405:Generated_Source\PSoC4/CyLFClk.c ****     *  CySysWdtUnlock() is called.
 406:Generated_Source\PSoC4/CyLFClk.c ****     *
 407:Generated_Source\PSoC4/CyLFClk.c ****     *******************************************************************************/
 408:Generated_Source\PSoC4/CyLFClk.c ****     void CySysWdtLock(void)
 409:Generated_Source\PSoC4/CyLFClk.c ****     {
 201              		.loc 1 409 0
 202              		.cfi_startproc
 203              		@ args = 0, pretend = 0, frame = 8
 204              		@ frame_needed = 1, uses_anonymous_args = 0
 205 0000 90B5     		push	{r4, r7, lr}
 206              		.cfi_def_cfa_offset 12
 207              		.cfi_offset 4, -12
 208              		.cfi_offset 7, -8
 209              		.cfi_offset 14, -4
 210 0002 83B0     		sub	sp, sp, #12
 211              		.cfi_def_cfa_offset 24
 212 0004 00AF     		add	r7, sp, #0
 213              		.cfi_def_cfa_register 7
 410:Generated_Source\PSoC4/CyLFClk.c ****         uint8 interruptState;
 411:Generated_Source\PSoC4/CyLFClk.c ****         interruptState = CyEnterCriticalSection();
ARM GAS  C:\Users\fabis\AppData\Local\Temp\ccvALjuz.s 			page 12


 214              		.loc 1 411 0
 215 0006 FC1D     		adds	r4, r7, #7
 216 0008 FFF7FEFF 		bl	CyEnterCriticalSection
 217 000c 0300     		movs	r3, r0
 218 000e 2370     		strb	r3, [r4]
 412:Generated_Source\PSoC4/CyLFClk.c **** 
 413:Generated_Source\PSoC4/CyLFClk.c ****         CY_SYS_CLK_SELECT_REG = (CY_SYS_CLK_SELECT_REG & (uint32)(~CY_SYS_WDT_CLK_LOCK_BITS_MASK)) 
 219              		.loc 1 413 0
 220 0010 074B     		ldr	r3, .L16
 221 0012 074A     		ldr	r2, .L16
 222 0014 1268     		ldr	r2, [r2]
 223 0016 C021     		movs	r1, #192
 224 0018 0902     		lsls	r1, r1, #8
 225 001a 0A43     		orrs	r2, r1
 226 001c 1A60     		str	r2, [r3]
 414:Generated_Source\PSoC4/CyLFClk.c ****                  CY_SYS_WDT_CLK_LOCK_BITS_MASK;
 415:Generated_Source\PSoC4/CyLFClk.c **** 
 416:Generated_Source\PSoC4/CyLFClk.c ****         CyExitCriticalSection(interruptState);
 227              		.loc 1 416 0
 228 001e FB1D     		adds	r3, r7, #7
 229 0020 1B78     		ldrb	r3, [r3]
 230 0022 1800     		movs	r0, r3
 231 0024 FFF7FEFF 		bl	CyExitCriticalSection
 417:Generated_Source\PSoC4/CyLFClk.c ****     }
 232              		.loc 1 417 0
 233 0028 C046     		nop
 234 002a BD46     		mov	sp, r7
 235 002c 03B0     		add	sp, sp, #12
 236              		@ sp needed
 237 002e 90BD     		pop	{r4, r7, pc}
 238              	.L17:
 239              		.align	2
 240              	.L16:
 241 0030 00010B40 		.word	1074462976
 242              		.cfi_endproc
 243              	.LFE3:
 244              		.size	CySysWdtLock, .-CySysWdtLock
 245              		.section	.text.CySysWdtLocked,"ax",%progbits
 246              		.align	2
 247              		.code	16
 248              		.thumb_func
 249              		.type	CySysWdtLocked, %function
 250              	CySysWdtLocked:
 251              	.LFB4:
 418:Generated_Source\PSoC4/CyLFClk.c **** 
 419:Generated_Source\PSoC4/CyLFClk.c **** 
 420:Generated_Source\PSoC4/CyLFClk.c ****     /*******************************************************************************
 421:Generated_Source\PSoC4/CyLFClk.c ****     * Function Name: CySysWdtLocked
 422:Generated_Source\PSoC4/CyLFClk.c ****     ********************************************************************************
 423:Generated_Source\PSoC4/CyLFClk.c ****     *
 424:Generated_Source\PSoC4/CyLFClk.c ****     * Summary:
 425:Generated_Source\PSoC4/CyLFClk.c ****     *  Reports the WDT lock state.
 426:Generated_Source\PSoC4/CyLFClk.c ****     *
 427:Generated_Source\PSoC4/CyLFClk.c ****     * Parameters:
 428:Generated_Source\PSoC4/CyLFClk.c ****     *  None
 429:Generated_Source\PSoC4/CyLFClk.c ****     *
 430:Generated_Source\PSoC4/CyLFClk.c ****     * Return:
ARM GAS  C:\Users\fabis\AppData\Local\Temp\ccvALjuz.s 			page 13


 431:Generated_Source\PSoC4/CyLFClk.c ****     *  1 - WDT is locked, and 0 - WDT is unlocked.
 432:Generated_Source\PSoC4/CyLFClk.c ****     *
 433:Generated_Source\PSoC4/CyLFClk.c ****     *******************************************************************************/
 434:Generated_Source\PSoC4/CyLFClk.c ****     static uint32 CySysWdtLocked(void)
 435:Generated_Source\PSoC4/CyLFClk.c ****     {
 252              		.loc 1 435 0
 253              		.cfi_startproc
 254              		@ args = 0, pretend = 0, frame = 0
 255              		@ frame_needed = 1, uses_anonymous_args = 0
 256 0000 80B5     		push	{r7, lr}
 257              		.cfi_def_cfa_offset 8
 258              		.cfi_offset 7, -8
 259              		.cfi_offset 14, -4
 260 0002 00AF     		add	r7, sp, #0
 261              		.cfi_def_cfa_register 7
 436:Generated_Source\PSoC4/CyLFClk.c ****         /* Prohibits writing to WDT registers and ILO/WCO registers when not equal 0 */
 437:Generated_Source\PSoC4/CyLFClk.c ****         return ((0u != (CY_SYS_CLK_SELECT_REG & (uint32)(CY_SYS_WDT_CLK_LOCK_BITS_MASK))) ? (uint32
 262              		.loc 1 437 0
 263 0004 054B     		ldr	r3, .L22
 264 0006 1A68     		ldr	r2, [r3]
 265 0008 C023     		movs	r3, #192
 266 000a 1B02     		lsls	r3, r3, #8
 267 000c 1340     		ands	r3, r2
 268 000e 01D0     		beq	.L19
 269              		.loc 1 437 0 is_stmt 0 discriminator 1
 270 0010 0123     		movs	r3, #1
 271 0012 00E0     		b	.L21
 272              	.L19:
 273              		.loc 1 437 0 discriminator 2
 274 0014 0023     		movs	r3, #0
 275              	.L21:
 438:Generated_Source\PSoC4/CyLFClk.c ****     }
 276              		.loc 1 438 0 is_stmt 1 discriminator 5
 277 0016 1800     		movs	r0, r3
 278 0018 BD46     		mov	sp, r7
 279              		@ sp needed
 280 001a 80BD     		pop	{r7, pc}
 281              	.L23:
 282              		.align	2
 283              	.L22:
 284 001c 00010B40 		.word	1074462976
 285              		.cfi_endproc
 286              	.LFE4:
 287              		.size	CySysWdtLocked, .-CySysWdtLocked
 288              		.section	.text.CySysWdtUnlock,"ax",%progbits
 289              		.align	2
 290              		.global	CySysWdtUnlock
 291              		.code	16
 292              		.thumb_func
 293              		.type	CySysWdtUnlock, %function
 294              	CySysWdtUnlock:
 295              	.LFB5:
 439:Generated_Source\PSoC4/CyLFClk.c **** 
 440:Generated_Source\PSoC4/CyLFClk.c **** 
 441:Generated_Source\PSoC4/CyLFClk.c ****     /*******************************************************************************
 442:Generated_Source\PSoC4/CyLFClk.c ****     * Function Name: CySysWdtUnlock
 443:Generated_Source\PSoC4/CyLFClk.c ****     ********************************************************************************
ARM GAS  C:\Users\fabis\AppData\Local\Temp\ccvALjuz.s 			page 14


 444:Generated_Source\PSoC4/CyLFClk.c ****     *
 445:Generated_Source\PSoC4/CyLFClk.c ****     * Summary:
 446:Generated_Source\PSoC4/CyLFClk.c ****     *  Unlocks the Watchdog Timer configuration register.
 447:Generated_Source\PSoC4/CyLFClk.c ****     *
 448:Generated_Source\PSoC4/CyLFClk.c ****     * Parameters:
 449:Generated_Source\PSoC4/CyLFClk.c ****     *  None.
 450:Generated_Source\PSoC4/CyLFClk.c ****     *
 451:Generated_Source\PSoC4/CyLFClk.c ****     * Return:
 452:Generated_Source\PSoC4/CyLFClk.c ****     *  None.
 453:Generated_Source\PSoC4/CyLFClk.c ****     *
 454:Generated_Source\PSoC4/CyLFClk.c ****     *******************************************************************************/
 455:Generated_Source\PSoC4/CyLFClk.c ****     void CySysWdtUnlock(void)
 456:Generated_Source\PSoC4/CyLFClk.c ****     {
 296              		.loc 1 456 0
 297              		.cfi_startproc
 298              		@ args = 0, pretend = 0, frame = 8
 299              		@ frame_needed = 1, uses_anonymous_args = 0
 300 0000 90B5     		push	{r4, r7, lr}
 301              		.cfi_def_cfa_offset 12
 302              		.cfi_offset 4, -12
 303              		.cfi_offset 7, -8
 304              		.cfi_offset 14, -4
 305 0002 83B0     		sub	sp, sp, #12
 306              		.cfi_def_cfa_offset 24
 307 0004 00AF     		add	r7, sp, #0
 308              		.cfi_def_cfa_register 7
 457:Generated_Source\PSoC4/CyLFClk.c ****         uint8 interruptState;
 458:Generated_Source\PSoC4/CyLFClk.c ****         interruptState = CyEnterCriticalSection();
 309              		.loc 1 458 0
 310 0006 FC1D     		adds	r4, r7, #7
 311 0008 FFF7FEFF 		bl	CyEnterCriticalSection
 312 000c 0300     		movs	r3, r0
 313 000e 2370     		strb	r3, [r4]
 459:Generated_Source\PSoC4/CyLFClk.c **** 
 460:Generated_Source\PSoC4/CyLFClk.c ****         /* Removing WDT lock requires two writes */
 461:Generated_Source\PSoC4/CyLFClk.c ****         CY_SYS_CLK_SELECT_REG = ((CY_SYS_CLK_SELECT_REG & (uint32)(~CY_SYS_WDT_CLK_LOCK_BITS_MASK))
 314              		.loc 1 461 0
 315 0010 0D4B     		ldr	r3, .L25
 316 0012 0D4A     		ldr	r2, .L25
 317 0014 1268     		ldr	r2, [r2]
 318 0016 0D49     		ldr	r1, .L25+4
 319 0018 0A40     		ands	r2, r1
 320 001a 8021     		movs	r1, #128
 321 001c C901     		lsls	r1, r1, #7
 322 001e 0A43     		orrs	r2, r1
 323 0020 1A60     		str	r2, [r3]
 462:Generated_Source\PSoC4/CyLFClk.c ****                 CY_SYS_WDT_CLK_LOCK_BIT0);
 463:Generated_Source\PSoC4/CyLFClk.c **** 
 464:Generated_Source\PSoC4/CyLFClk.c ****         CY_SYS_CLK_SELECT_REG = ((CY_SYS_CLK_SELECT_REG & (uint32)(~CY_SYS_WDT_CLK_LOCK_BITS_MASK))
 324              		.loc 1 464 0
 325 0022 094B     		ldr	r3, .L25
 326 0024 084A     		ldr	r2, .L25
 327 0026 1268     		ldr	r2, [r2]
 328 0028 0849     		ldr	r1, .L25+4
 329 002a 0A40     		ands	r2, r1
 330 002c 8021     		movs	r1, #128
 331 002e 0902     		lsls	r1, r1, #8
ARM GAS  C:\Users\fabis\AppData\Local\Temp\ccvALjuz.s 			page 15


 332 0030 0A43     		orrs	r2, r1
 333 0032 1A60     		str	r2, [r3]
 465:Generated_Source\PSoC4/CyLFClk.c ****                 CY_SYS_WDT_CLK_LOCK_BIT1);
 466:Generated_Source\PSoC4/CyLFClk.c **** 
 467:Generated_Source\PSoC4/CyLFClk.c ****         CyExitCriticalSection(interruptState);
 334              		.loc 1 467 0
 335 0034 FB1D     		adds	r3, r7, #7
 336 0036 1B78     		ldrb	r3, [r3]
 337 0038 1800     		movs	r0, r3
 338 003a FFF7FEFF 		bl	CyExitCriticalSection
 468:Generated_Source\PSoC4/CyLFClk.c ****     }
 339              		.loc 1 468 0
 340 003e C046     		nop
 341 0040 BD46     		mov	sp, r7
 342 0042 03B0     		add	sp, sp, #12
 343              		@ sp needed
 344 0044 90BD     		pop	{r4, r7, pc}
 345              	.L26:
 346 0046 C046     		.align	2
 347              	.L25:
 348 0048 00010B40 		.word	1074462976
 349 004c FF3FFFFF 		.word	-49153
 350              		.cfi_endproc
 351              	.LFE5:
 352              		.size	CySysWdtUnlock, .-CySysWdtUnlock
 353              		.section	.text.CySysWdtGetEnabledStatus,"ax",%progbits
 354              		.align	2
 355              		.global	CySysWdtGetEnabledStatus
 356              		.code	16
 357              		.thumb_func
 358              		.type	CySysWdtGetEnabledStatus, %function
 359              	CySysWdtGetEnabledStatus:
 360              	.LFB6:
 469:Generated_Source\PSoC4/CyLFClk.c **** 
 470:Generated_Source\PSoC4/CyLFClk.c **** 
 471:Generated_Source\PSoC4/CyLFClk.c ****     /*******************************************************************************
 472:Generated_Source\PSoC4/CyLFClk.c ****     * Function Name: CySysWdtGetEnabledStatus
 473:Generated_Source\PSoC4/CyLFClk.c ****     ********************************************************************************
 474:Generated_Source\PSoC4/CyLFClk.c ****     *
 475:Generated_Source\PSoC4/CyLFClk.c ****     * Summary:
 476:Generated_Source\PSoC4/CyLFClk.c ****     *  Reads the enabled status of one of the three WDT counters.
 477:Generated_Source\PSoC4/CyLFClk.c ****     *
 478:Generated_Source\PSoC4/CyLFClk.c ****     * Parameters:
 479:Generated_Source\PSoC4/CyLFClk.c ****     *  counterNum: Valid range [0-2].  the number of the WDT counter.
 480:Generated_Source\PSoC4/CyLFClk.c ****     *
 481:Generated_Source\PSoC4/CyLFClk.c ****     * Return:
 482:Generated_Source\PSoC4/CyLFClk.c ****     *  The status of the WDT counter:
 483:Generated_Source\PSoC4/CyLFClk.c ****     *   0 - The counter is disabled.
 484:Generated_Source\PSoC4/CyLFClk.c ****     *   1 - The counter is enabled.
 485:Generated_Source\PSoC4/CyLFClk.c ****     *
 486:Generated_Source\PSoC4/CyLFClk.c ****     * Side Effects:
 487:Generated_Source\PSoC4/CyLFClk.c ****     *  This function returns an actual WDT counter status from the status register. It may
 488:Generated_Source\PSoC4/CyLFClk.c ****     *  take up to 3 LFCLK cycles for the WDT status register to contain actual data
 489:Generated_Source\PSoC4/CyLFClk.c ****     *  after the WDT counter is enabled.
 490:Generated_Source\PSoC4/CyLFClk.c ****     *
 491:Generated_Source\PSoC4/CyLFClk.c ****     *
 492:Generated_Source\PSoC4/CyLFClk.c ****     *******************************************************************************/
ARM GAS  C:\Users\fabis\AppData\Local\Temp\ccvALjuz.s 			page 16


 493:Generated_Source\PSoC4/CyLFClk.c ****     uint32 CySysWdtGetEnabledStatus(uint32 counterNum)
 494:Generated_Source\PSoC4/CyLFClk.c ****     {
 361              		.loc 1 494 0
 362              		.cfi_startproc
 363              		@ args = 0, pretend = 0, frame = 8
 364              		@ frame_needed = 1, uses_anonymous_args = 0
 365 0000 80B5     		push	{r7, lr}
 366              		.cfi_def_cfa_offset 8
 367              		.cfi_offset 7, -8
 368              		.cfi_offset 14, -4
 369 0002 82B0     		sub	sp, sp, #8
 370              		.cfi_def_cfa_offset 16
 371 0004 00AF     		add	r7, sp, #0
 372              		.cfi_def_cfa_register 7
 373 0006 7860     		str	r0, [r7, #4]
 495:Generated_Source\PSoC4/CyLFClk.c ****         CYASSERT(counterNum < CY_SYS_WDT_COUNTERS_MAX);
 374              		.loc 1 495 0
 375 0008 7B68     		ldr	r3, [r7, #4]
 376 000a 022B     		cmp	r3, #2
 377 000c 02D9     		bls	.L28
 378              		.loc 1 495 0 is_stmt 0 discriminator 1
 379 000e 0020     		movs	r0, #0
 380 0010 FFF7FEFF 		bl	CyHalt
 381              	.L28:
 496:Generated_Source\PSoC4/CyLFClk.c ****         return ((CY_SYS_WDT_CONTROL_REG >> ((CY_SYS_WDT_CNT_SHIFT * counterNum) + CY_SYS_WDT_CNT_ST
 382              		.loc 1 496 0 is_stmt 1
 383 0014 064B     		ldr	r3, .L30
 384 0016 1A68     		ldr	r2, [r3]
 385 0018 7B68     		ldr	r3, [r7, #4]
 386 001a DB00     		lsls	r3, r3, #3
 387 001c 0133     		adds	r3, r3, #1
 388 001e DA40     		lsrs	r2, r2, r3
 389 0020 1300     		movs	r3, r2
 390 0022 0122     		movs	r2, #1
 391 0024 1340     		ands	r3, r2
 497:Generated_Source\PSoC4/CyLFClk.c ****     }
 392              		.loc 1 497 0
 393 0026 1800     		movs	r0, r3
 394 0028 BD46     		mov	sp, r7
 395 002a 02B0     		add	sp, sp, #8
 396              		@ sp needed
 397 002c 80BD     		pop	{r7, pc}
 398              	.L31:
 399 002e C046     		.align	2
 400              	.L30:
 401 0030 10020B40 		.word	1074463248
 402              		.cfi_endproc
 403              	.LFE6:
 404              		.size	CySysWdtGetEnabledStatus, .-CySysWdtGetEnabledStatus
 405              		.section	.text.CySysWdtSetMode,"ax",%progbits
 406              		.align	2
 407              		.global	CySysWdtSetMode
 408              		.code	16
 409              		.thumb_func
 410              		.type	CySysWdtSetMode, %function
 411              	CySysWdtSetMode:
 412              	.LFB7:
ARM GAS  C:\Users\fabis\AppData\Local\Temp\ccvALjuz.s 			page 17


 498:Generated_Source\PSoC4/CyLFClk.c **** 
 499:Generated_Source\PSoC4/CyLFClk.c **** 
 500:Generated_Source\PSoC4/CyLFClk.c ****     /*******************************************************************************
 501:Generated_Source\PSoC4/CyLFClk.c ****     * Function Name: CySysWdtSetMode
 502:Generated_Source\PSoC4/CyLFClk.c ****     ********************************************************************************
 503:Generated_Source\PSoC4/CyLFClk.c ****     *
 504:Generated_Source\PSoC4/CyLFClk.c ****     * Summary:
 505:Generated_Source\PSoC4/CyLFClk.c ****     *   Writes the mode of one of the three WDT counters.
 506:Generated_Source\PSoC4/CyLFClk.c ****     *
 507:Generated_Source\PSoC4/CyLFClk.c ****     * Parameters:
 508:Generated_Source\PSoC4/CyLFClk.c ****     *   counterNum: Valid range [0-2].  The number of the WDT counter.
 509:Generated_Source\PSoC4/CyLFClk.c ****     *   mode:       Mode of operation for the counter.
 510:Generated_Source\PSoC4/CyLFClk.c ****     *       Define                     Mode
 511:Generated_Source\PSoC4/CyLFClk.c ****     *        CY_SYS_WDT_MODE_NONE       Free running
 512:Generated_Source\PSoC4/CyLFClk.c ****     *        CY_SYS_WDT_MODE_INT        The interrupt generated on match for counter 0
 513:Generated_Source\PSoC4/CyLFClk.c ****     *                                   and 1, and on bit toggle for counter 2.
 514:Generated_Source\PSoC4/CyLFClk.c ****     *        CY_SYS_WDT_MODE_RESET      Reset on match (valid for counter 0 and 1
 515:Generated_Source\PSoC4/CyLFClk.c ****     *                                   only)
 516:Generated_Source\PSoC4/CyLFClk.c ****     *        CY_SYS_WDT_MODE_INT_RESET  Generate an interrupt.  Generate a reset on
 517:Generated_Source\PSoC4/CyLFClk.c ****     *                                   the 3rd non-handled interrupt.
 518:Generated_Source\PSoC4/CyLFClk.c ****     *                                   (valid for counter 0 and 1 only)
 519:Generated_Source\PSoC4/CyLFClk.c ****     * Return:
 520:Generated_Source\PSoC4/CyLFClk.c ****     *   None.
 521:Generated_Source\PSoC4/CyLFClk.c ****     *
 522:Generated_Source\PSoC4/CyLFClk.c ****     * Side Effects:
 523:Generated_Source\PSoC4/CyLFClk.c ****     *   WDT counter counterNum should be disabled to set a mode. Otherwise, this
 524:Generated_Source\PSoC4/CyLFClk.c ****     *   function call has no effect. If the specified counter is enabled,
 525:Generated_Source\PSoC4/CyLFClk.c ****     *   call the CySysWdtDisable() function with the corresponding parameter to
 526:Generated_Source\PSoC4/CyLFClk.c ****     *   disable the specified counter and wait for it to stop.
 527:Generated_Source\PSoC4/CyLFClk.c ****     *
 528:Generated_Source\PSoC4/CyLFClk.c ****     *******************************************************************************/
 529:Generated_Source\PSoC4/CyLFClk.c ****     void CySysWdtSetMode(uint32 counterNum, uint32 mode)
 530:Generated_Source\PSoC4/CyLFClk.c ****     {
 413              		.loc 1 530 0
 414              		.cfi_startproc
 415              		@ args = 0, pretend = 0, frame = 16
 416              		@ frame_needed = 1, uses_anonymous_args = 0
 417 0000 80B5     		push	{r7, lr}
 418              		.cfi_def_cfa_offset 8
 419              		.cfi_offset 7, -8
 420              		.cfi_offset 14, -4
 421 0002 84B0     		sub	sp, sp, #16
 422              		.cfi_def_cfa_offset 24
 423 0004 00AF     		add	r7, sp, #0
 424              		.cfi_def_cfa_register 7
 425 0006 7860     		str	r0, [r7, #4]
 426 0008 3960     		str	r1, [r7]
 531:Generated_Source\PSoC4/CyLFClk.c ****         uint32 configRegValue;
 532:Generated_Source\PSoC4/CyLFClk.c **** 
 533:Generated_Source\PSoC4/CyLFClk.c ****         CYASSERT(counterNum < CY_SYS_WDT_COUNTERS_MAX);
 427              		.loc 1 533 0
 428 000a 7B68     		ldr	r3, [r7, #4]
 429 000c 022B     		cmp	r3, #2
 430 000e 02D9     		bls	.L33
 431              		.loc 1 533 0 is_stmt 0 discriminator 1
 432 0010 0020     		movs	r0, #0
 433 0012 FFF7FEFF 		bl	CyHalt
ARM GAS  C:\Users\fabis\AppData\Local\Temp\ccvALjuz.s 			page 18


 434              	.L33:
 534:Generated_Source\PSoC4/CyLFClk.c **** 
 535:Generated_Source\PSoC4/CyLFClk.c ****         if(0u == CySysWdtGetEnabledStatus(counterNum))
 435              		.loc 1 535 0 is_stmt 1
 436 0016 7B68     		ldr	r3, [r7, #4]
 437 0018 1800     		movs	r0, r3
 438 001a FFF7FEFF 		bl	CySysWdtGetEnabledStatus
 439 001e 031E     		subs	r3, r0, #0
 440 0020 16D1     		bne	.L35
 536:Generated_Source\PSoC4/CyLFClk.c ****         {
 537:Generated_Source\PSoC4/CyLFClk.c ****             configRegValue = CY_SYS_WDT_CONFIG_REG &
 441              		.loc 1 537 0
 442 0022 0D4B     		ldr	r3, .L36
 443 0024 1B68     		ldr	r3, [r3]
 538:Generated_Source\PSoC4/CyLFClk.c ****                                 (uint32)~((uint32)(CY_SYS_WDT_MODE_MASK << (counterNum * CY_SYS_WDT
 444              		.loc 1 538 0
 445 0026 7A68     		ldr	r2, [r7, #4]
 446 0028 D200     		lsls	r2, r2, #3
 447 002a 0321     		movs	r1, #3
 448 002c 9140     		lsls	r1, r1, r2
 449 002e 0A00     		movs	r2, r1
 450 0030 D243     		mvns	r2, r2
 537:Generated_Source\PSoC4/CyLFClk.c ****                                 (uint32)~((uint32)(CY_SYS_WDT_MODE_MASK << (counterNum * CY_SYS_WDT
 451              		.loc 1 537 0
 452 0032 1340     		ands	r3, r2
 453 0034 FB60     		str	r3, [r7, #12]
 539:Generated_Source\PSoC4/CyLFClk.c ****             configRegValue |= (uint32)((mode & CY_SYS_WDT_MODE_MASK) << (counterNum * CY_SYS_WDT_CN
 454              		.loc 1 539 0
 455 0036 3B68     		ldr	r3, [r7]
 456 0038 0322     		movs	r2, #3
 457 003a 1A40     		ands	r2, r3
 458 003c 7B68     		ldr	r3, [r7, #4]
 459 003e DB00     		lsls	r3, r3, #3
 460 0040 9A40     		lsls	r2, r2, r3
 461 0042 1300     		movs	r3, r2
 462 0044 FA68     		ldr	r2, [r7, #12]
 463 0046 1343     		orrs	r3, r2
 464 0048 FB60     		str	r3, [r7, #12]
 540:Generated_Source\PSoC4/CyLFClk.c ****             CY_SYS_WDT_CONFIG_REG = configRegValue;
 465              		.loc 1 540 0
 466 004a 034B     		ldr	r3, .L36
 467 004c FA68     		ldr	r2, [r7, #12]
 468 004e 1A60     		str	r2, [r3]
 469              	.L35:
 541:Generated_Source\PSoC4/CyLFClk.c ****         }
 542:Generated_Source\PSoC4/CyLFClk.c ****     }
 470              		.loc 1 542 0
 471 0050 C046     		nop
 472 0052 BD46     		mov	sp, r7
 473 0054 04B0     		add	sp, sp, #16
 474              		@ sp needed
 475 0056 80BD     		pop	{r7, pc}
 476              	.L37:
 477              		.align	2
 478              	.L36:
 479 0058 0C020B40 		.word	1074463244
 480              		.cfi_endproc
ARM GAS  C:\Users\fabis\AppData\Local\Temp\ccvALjuz.s 			page 19


 481              	.LFE7:
 482              		.size	CySysWdtSetMode, .-CySysWdtSetMode
 483              		.section	.text.CySysWdtGetMode,"ax",%progbits
 484              		.align	2
 485              		.global	CySysWdtGetMode
 486              		.code	16
 487              		.thumb_func
 488              		.type	CySysWdtGetMode, %function
 489              	CySysWdtGetMode:
 490              	.LFB8:
 543:Generated_Source\PSoC4/CyLFClk.c **** 
 544:Generated_Source\PSoC4/CyLFClk.c **** 
 545:Generated_Source\PSoC4/CyLFClk.c ****     /*******************************************************************************
 546:Generated_Source\PSoC4/CyLFClk.c ****     * Function Name: CySysWdtGetMode
 547:Generated_Source\PSoC4/CyLFClk.c ****     ********************************************************************************
 548:Generated_Source\PSoC4/CyLFClk.c ****     *
 549:Generated_Source\PSoC4/CyLFClk.c ****     * Summary:
 550:Generated_Source\PSoC4/CyLFClk.c ****     *  Reads the mode of one of the three WDT counters.
 551:Generated_Source\PSoC4/CyLFClk.c ****     *
 552:Generated_Source\PSoC4/CyLFClk.c ****     * Parameters:
 553:Generated_Source\PSoC4/CyLFClk.c ****     *  counterNum: Valid range [0-2].  The number of the WDT counter.
 554:Generated_Source\PSoC4/CyLFClk.c ****     *
 555:Generated_Source\PSoC4/CyLFClk.c ****     * Return:
 556:Generated_Source\PSoC4/CyLFClk.c ****     *  The mode of the counter.  The same enumerated values as the mode parameter used in
 557:Generated_Source\PSoC4/CyLFClk.c ****     *  CySysWdtSetMode().
 558:Generated_Source\PSoC4/CyLFClk.c ****     *
 559:Generated_Source\PSoC4/CyLFClk.c ****     *******************************************************************************/
 560:Generated_Source\PSoC4/CyLFClk.c ****     uint32 CySysWdtGetMode(uint32 counterNum)
 561:Generated_Source\PSoC4/CyLFClk.c ****     {
 491              		.loc 1 561 0
 492              		.cfi_startproc
 493              		@ args = 0, pretend = 0, frame = 8
 494              		@ frame_needed = 1, uses_anonymous_args = 0
 495 0000 80B5     		push	{r7, lr}
 496              		.cfi_def_cfa_offset 8
 497              		.cfi_offset 7, -8
 498              		.cfi_offset 14, -4
 499 0002 82B0     		sub	sp, sp, #8
 500              		.cfi_def_cfa_offset 16
 501 0004 00AF     		add	r7, sp, #0
 502              		.cfi_def_cfa_register 7
 503 0006 7860     		str	r0, [r7, #4]
 562:Generated_Source\PSoC4/CyLFClk.c ****         return ((CY_SYS_WDT_CONFIG_REG >> (counterNum * CY_SYS_WDT_CNT_SHIFT)) & CY_SYS_WDT_MODE_MA
 504              		.loc 1 562 0
 505 0008 054B     		ldr	r3, .L40
 506 000a 1A68     		ldr	r2, [r3]
 507 000c 7B68     		ldr	r3, [r7, #4]
 508 000e DB00     		lsls	r3, r3, #3
 509 0010 DA40     		lsrs	r2, r2, r3
 510 0012 1300     		movs	r3, r2
 511 0014 0322     		movs	r2, #3
 512 0016 1340     		ands	r3, r2
 563:Generated_Source\PSoC4/CyLFClk.c ****     }
 513              		.loc 1 563 0
 514 0018 1800     		movs	r0, r3
 515 001a BD46     		mov	sp, r7
 516 001c 02B0     		add	sp, sp, #8
ARM GAS  C:\Users\fabis\AppData\Local\Temp\ccvALjuz.s 			page 20


 517              		@ sp needed
 518 001e 80BD     		pop	{r7, pc}
 519              	.L41:
 520              		.align	2
 521              	.L40:
 522 0020 0C020B40 		.word	1074463244
 523              		.cfi_endproc
 524              	.LFE8:
 525              		.size	CySysWdtGetMode, .-CySysWdtGetMode
 526              		.section	.text.CySysWdtSetClearOnMatch,"ax",%progbits
 527              		.align	2
 528              		.global	CySysWdtSetClearOnMatch
 529              		.code	16
 530              		.thumb_func
 531              		.type	CySysWdtSetClearOnMatch, %function
 532              	CySysWdtSetClearOnMatch:
 533              	.LFB9:
 564:Generated_Source\PSoC4/CyLFClk.c **** 
 565:Generated_Source\PSoC4/CyLFClk.c **** 
 566:Generated_Source\PSoC4/CyLFClk.c ****     /*******************************************************************************
 567:Generated_Source\PSoC4/CyLFClk.c ****     * Function Name: CySysWdtSetClearOnMatch
 568:Generated_Source\PSoC4/CyLFClk.c ****     ********************************************************************************
 569:Generated_Source\PSoC4/CyLFClk.c ****     *
 570:Generated_Source\PSoC4/CyLFClk.c ****     * Summary:
 571:Generated_Source\PSoC4/CyLFClk.c ****     *  Configures the WDT counter "clear on match" setting.  If configured to "clear
 572:Generated_Source\PSoC4/CyLFClk.c ****     *  on match", the counter counts from 0 to MatchValue giving it a
 573:Generated_Source\PSoC4/CyLFClk.c ****     *  period of (MatchValue + 1).
 574:Generated_Source\PSoC4/CyLFClk.c ****     *
 575:Generated_Source\PSoC4/CyLFClk.c ****     * Parameters:
 576:Generated_Source\PSoC4/CyLFClk.c ****     *  counterNum:
 577:Generated_Source\PSoC4/CyLFClk.c ****     *   Valid range [0-1].  The number of the WDT counter.  The match values are not
 578:Generated_Source\PSoC4/CyLFClk.c ****     *   supported by counter 2.
 579:Generated_Source\PSoC4/CyLFClk.c ****     *
 580:Generated_Source\PSoC4/CyLFClk.c ****     * enable:
 581:Generated_Source\PSoC4/CyLFClk.c ****     *   0 to disable, 1 to enable
 582:Generated_Source\PSoC4/CyLFClk.c ****     *
 583:Generated_Source\PSoC4/CyLFClk.c ****     * Return:
 584:Generated_Source\PSoC4/CyLFClk.c ****     *   None.
 585:Generated_Source\PSoC4/CyLFClk.c ****     *
 586:Generated_Source\PSoC4/CyLFClk.c ****     * Side Effects:
 587:Generated_Source\PSoC4/CyLFClk.c ****     *   WDT counter counterNum should be disabled. Otherwise this function call
 588:Generated_Source\PSoC4/CyLFClk.c ****     *   has no effect. If the specified counter is enabled, call the CySysWdtDisable()
 589:Generated_Source\PSoC4/CyLFClk.c ****     *   function with the corresponding parameter to disable the specified counter and
 590:Generated_Source\PSoC4/CyLFClk.c ****     *   wait for it to stop. This may take up to three LFCLK cycles.
 591:Generated_Source\PSoC4/CyLFClk.c ****     *
 592:Generated_Source\PSoC4/CyLFClk.c ****     *******************************************************************************/
 593:Generated_Source\PSoC4/CyLFClk.c ****     void CySysWdtSetClearOnMatch(uint32 counterNum, uint32 enable)
 594:Generated_Source\PSoC4/CyLFClk.c ****     {
 534              		.loc 1 594 0
 535              		.cfi_startproc
 536              		@ args = 0, pretend = 0, frame = 16
 537              		@ frame_needed = 1, uses_anonymous_args = 0
 538 0000 80B5     		push	{r7, lr}
 539              		.cfi_def_cfa_offset 8
 540              		.cfi_offset 7, -8
 541              		.cfi_offset 14, -4
 542 0002 84B0     		sub	sp, sp, #16
ARM GAS  C:\Users\fabis\AppData\Local\Temp\ccvALjuz.s 			page 21


 543              		.cfi_def_cfa_offset 24
 544 0004 00AF     		add	r7, sp, #0
 545              		.cfi_def_cfa_register 7
 546 0006 7860     		str	r0, [r7, #4]
 547 0008 3960     		str	r1, [r7]
 595:Generated_Source\PSoC4/CyLFClk.c ****         uint32 configRegValue;
 596:Generated_Source\PSoC4/CyLFClk.c **** 
 597:Generated_Source\PSoC4/CyLFClk.c ****         CYASSERT((counterNum == CY_SYS_WDT_COUNTER0) ||
 548              		.loc 1 597 0
 549 000a 7B68     		ldr	r3, [r7, #4]
 550 000c 002B     		cmp	r3, #0
 551 000e 02D0     		beq	.L43
 552              		.loc 1 597 0 is_stmt 0 discriminator 2
 553 0010 7B68     		ldr	r3, [r7, #4]
 554 0012 012B     		cmp	r3, #1
 555 0014 01D1     		bne	.L44
 556              	.L43:
 557              		.loc 1 597 0 discriminator 3
 558 0016 0123     		movs	r3, #1
 559 0018 00E0     		b	.L45
 560              	.L44:
 561              		.loc 1 597 0 discriminator 4
 562 001a 0023     		movs	r3, #0
 563              	.L45:
 564              		.loc 1 597 0 discriminator 6
 565 001c 002B     		cmp	r3, #0
 566 001e 02D1     		bne	.L46
 567              		.loc 1 597 0 discriminator 7
 568 0020 0020     		movs	r0, #0
 569 0022 FFF7FEFF 		bl	CyHalt
 570              	.L46:
 598:Generated_Source\PSoC4/CyLFClk.c ****                  (counterNum == CY_SYS_WDT_COUNTER1));
 599:Generated_Source\PSoC4/CyLFClk.c **** 
 600:Generated_Source\PSoC4/CyLFClk.c ****         if(0u == CySysWdtGetEnabledStatus(counterNum))
 571              		.loc 1 600 0 is_stmt 1
 572 0026 7B68     		ldr	r3, [r7, #4]
 573 0028 1800     		movs	r0, r3
 574 002a FFF7FEFF 		bl	CySysWdtGetEnabledStatus
 575 002e 031E     		subs	r3, r0, #0
 576 0030 16D1     		bne	.L48
 601:Generated_Source\PSoC4/CyLFClk.c ****         {
 602:Generated_Source\PSoC4/CyLFClk.c ****             configRegValue = CY_SYS_WDT_CONFIG_REG &
 577              		.loc 1 602 0
 578 0032 0D4B     		ldr	r3, .L49
 579 0034 1B68     		ldr	r3, [r3]
 603:Generated_Source\PSoC4/CyLFClk.c ****                 (uint32)~((uint32)((uint32)1u << ((counterNum * CY_SYS_WDT_CNT_SHIFT) + CY_SYS_WDT_
 580              		.loc 1 603 0
 581 0036 7A68     		ldr	r2, [r7, #4]
 582 0038 D200     		lsls	r2, r2, #3
 583 003a 0232     		adds	r2, r2, #2
 584 003c 0121     		movs	r1, #1
 585 003e 9140     		lsls	r1, r1, r2
 586 0040 0A00     		movs	r2, r1
 587 0042 D243     		mvns	r2, r2
 602:Generated_Source\PSoC4/CyLFClk.c ****                 (uint32)~((uint32)((uint32)1u << ((counterNum * CY_SYS_WDT_CNT_SHIFT) + CY_SYS_WDT_
 588              		.loc 1 602 0
 589 0044 1340     		ands	r3, r2
ARM GAS  C:\Users\fabis\AppData\Local\Temp\ccvALjuz.s 			page 22


 590 0046 FB60     		str	r3, [r7, #12]
 604:Generated_Source\PSoC4/CyLFClk.c **** 
 605:Generated_Source\PSoC4/CyLFClk.c ****             configRegValue
 606:Generated_Source\PSoC4/CyLFClk.c ****                 |= (uint32)(enable << ((counterNum * CY_SYS_WDT_CNT_SHIFT) + CY_SYS_WDT_CNT_MATCH_C
 591              		.loc 1 606 0
 592 0048 7B68     		ldr	r3, [r7, #4]
 593 004a DB00     		lsls	r3, r3, #3
 594 004c 0233     		adds	r3, r3, #2
 595 004e 3A68     		ldr	r2, [r7]
 596 0050 9A40     		lsls	r2, r2, r3
 597 0052 1300     		movs	r3, r2
 598 0054 FA68     		ldr	r2, [r7, #12]
 599 0056 1343     		orrs	r3, r2
 600 0058 FB60     		str	r3, [r7, #12]
 607:Generated_Source\PSoC4/CyLFClk.c **** 
 608:Generated_Source\PSoC4/CyLFClk.c ****             CY_SYS_WDT_CONFIG_REG = configRegValue;
 601              		.loc 1 608 0
 602 005a 034B     		ldr	r3, .L49
 603 005c FA68     		ldr	r2, [r7, #12]
 604 005e 1A60     		str	r2, [r3]
 605              	.L48:
 609:Generated_Source\PSoC4/CyLFClk.c ****         }
 610:Generated_Source\PSoC4/CyLFClk.c ****     }
 606              		.loc 1 610 0
 607 0060 C046     		nop
 608 0062 BD46     		mov	sp, r7
 609 0064 04B0     		add	sp, sp, #16
 610              		@ sp needed
 611 0066 80BD     		pop	{r7, pc}
 612              	.L50:
 613              		.align	2
 614              	.L49:
 615 0068 0C020B40 		.word	1074463244
 616              		.cfi_endproc
 617              	.LFE9:
 618              		.size	CySysWdtSetClearOnMatch, .-CySysWdtSetClearOnMatch
 619              		.section	.text.CySysWdtGetClearOnMatch,"ax",%progbits
 620              		.align	2
 621              		.global	CySysWdtGetClearOnMatch
 622              		.code	16
 623              		.thumb_func
 624              		.type	CySysWdtGetClearOnMatch, %function
 625              	CySysWdtGetClearOnMatch:
 626              	.LFB10:
 611:Generated_Source\PSoC4/CyLFClk.c **** 
 612:Generated_Source\PSoC4/CyLFClk.c **** 
 613:Generated_Source\PSoC4/CyLFClk.c ****     /*******************************************************************************
 614:Generated_Source\PSoC4/CyLFClk.c ****     * Function Name: CySysWdtGetClearOnMatch
 615:Generated_Source\PSoC4/CyLFClk.c ****     ********************************************************************************
 616:Generated_Source\PSoC4/CyLFClk.c ****     *
 617:Generated_Source\PSoC4/CyLFClk.c ****     * Summary:
 618:Generated_Source\PSoC4/CyLFClk.c ****     *  Reads the "clear on match" setting for the specified counter.
 619:Generated_Source\PSoC4/CyLFClk.c ****     *
 620:Generated_Source\PSoC4/CyLFClk.c ****     * Parameters:
 621:Generated_Source\PSoC4/CyLFClk.c ****     *   counterNum: Valid range [0-1].  The number of the WDT counter.  The match values are
 622:Generated_Source\PSoC4/CyLFClk.c ****     *               not supported by counter 2.
 623:Generated_Source\PSoC4/CyLFClk.c ****     *
ARM GAS  C:\Users\fabis\AppData\Local\Temp\ccvALjuz.s 			page 23


 624:Generated_Source\PSoC4/CyLFClk.c ****     * Return:
 625:Generated_Source\PSoC4/CyLFClk.c ****     *   The "clear on match" status: 1 if enabled, 0 if disabled
 626:Generated_Source\PSoC4/CyLFClk.c ****     *
 627:Generated_Source\PSoC4/CyLFClk.c ****     *******************************************************************************/
 628:Generated_Source\PSoC4/CyLFClk.c ****     uint32 CySysWdtGetClearOnMatch(uint32 counterNum)
 629:Generated_Source\PSoC4/CyLFClk.c ****     {
 627              		.loc 1 629 0
 628              		.cfi_startproc
 629              		@ args = 0, pretend = 0, frame = 8
 630              		@ frame_needed = 1, uses_anonymous_args = 0
 631 0000 80B5     		push	{r7, lr}
 632              		.cfi_def_cfa_offset 8
 633              		.cfi_offset 7, -8
 634              		.cfi_offset 14, -4
 635 0002 82B0     		sub	sp, sp, #8
 636              		.cfi_def_cfa_offset 16
 637 0004 00AF     		add	r7, sp, #0
 638              		.cfi_def_cfa_register 7
 639 0006 7860     		str	r0, [r7, #4]
 630:Generated_Source\PSoC4/CyLFClk.c ****         CYASSERT((counterNum == CY_SYS_WDT_COUNTER0) ||
 640              		.loc 1 630 0
 641 0008 7B68     		ldr	r3, [r7, #4]
 642 000a 002B     		cmp	r3, #0
 643 000c 02D0     		beq	.L52
 644              		.loc 1 630 0 is_stmt 0 discriminator 2
 645 000e 7B68     		ldr	r3, [r7, #4]
 646 0010 012B     		cmp	r3, #1
 647 0012 01D1     		bne	.L53
 648              	.L52:
 649              		.loc 1 630 0 discriminator 3
 650 0014 0123     		movs	r3, #1
 651 0016 00E0     		b	.L54
 652              	.L53:
 653              		.loc 1 630 0 discriminator 4
 654 0018 0023     		movs	r3, #0
 655              	.L54:
 656              		.loc 1 630 0 discriminator 6
 657 001a 002B     		cmp	r3, #0
 658 001c 02D1     		bne	.L55
 659              		.loc 1 630 0 discriminator 7
 660 001e 0020     		movs	r0, #0
 661 0020 FFF7FEFF 		bl	CyHalt
 662              	.L55:
 631:Generated_Source\PSoC4/CyLFClk.c ****                  (counterNum == CY_SYS_WDT_COUNTER1));
 632:Generated_Source\PSoC4/CyLFClk.c **** 
 633:Generated_Source\PSoC4/CyLFClk.c ****         return (uint32)((CY_SYS_WDT_CONFIG_REG >>
 663              		.loc 1 633 0 is_stmt 1
 664 0024 064B     		ldr	r3, .L57
 665 0026 1A68     		ldr	r2, [r3]
 634:Generated_Source\PSoC4/CyLFClk.c ****                         ((counterNum * CY_SYS_WDT_CNT_SHIFT) + CY_SYS_WDT_CNT_MATCH_CLR_SHIFT)) & 0
 666              		.loc 1 634 0
 667 0028 7B68     		ldr	r3, [r7, #4]
 668 002a DB00     		lsls	r3, r3, #3
 669 002c 0233     		adds	r3, r3, #2
 633:Generated_Source\PSoC4/CyLFClk.c ****                         ((counterNum * CY_SYS_WDT_CNT_SHIFT) + CY_SYS_WDT_CNT_MATCH_CLR_SHIFT)) & 0
 670              		.loc 1 633 0
 671 002e DA40     		lsrs	r2, r2, r3
ARM GAS  C:\Users\fabis\AppData\Local\Temp\ccvALjuz.s 			page 24


 672 0030 1300     		movs	r3, r2
 673 0032 0122     		movs	r2, #1
 674 0034 1340     		ands	r3, r2
 635:Generated_Source\PSoC4/CyLFClk.c ****     }
 675              		.loc 1 635 0
 676 0036 1800     		movs	r0, r3
 677 0038 BD46     		mov	sp, r7
 678 003a 02B0     		add	sp, sp, #8
 679              		@ sp needed
 680 003c 80BD     		pop	{r7, pc}
 681              	.L58:
 682 003e C046     		.align	2
 683              	.L57:
 684 0040 0C020B40 		.word	1074463244
 685              		.cfi_endproc
 686              	.LFE10:
 687              		.size	CySysWdtGetClearOnMatch, .-CySysWdtGetClearOnMatch
 688              		.section	.text.CySysWdtEnable,"ax",%progbits
 689              		.align	2
 690              		.global	CySysWdtEnable
 691              		.code	16
 692              		.thumb_func
 693              		.type	CySysWdtEnable, %function
 694              	CySysWdtEnable:
 695              	.LFB11:
 636:Generated_Source\PSoC4/CyLFClk.c **** 
 637:Generated_Source\PSoC4/CyLFClk.c **** 
 638:Generated_Source\PSoC4/CyLFClk.c ****     /*******************************************************************************
 639:Generated_Source\PSoC4/CyLFClk.c ****     * Function Name: CySysWdtEnable
 640:Generated_Source\PSoC4/CyLFClk.c ****     ********************************************************************************
 641:Generated_Source\PSoC4/CyLFClk.c ****     *
 642:Generated_Source\PSoC4/CyLFClk.c ****     * Summary:
 643:Generated_Source\PSoC4/CyLFClk.c ****     *  Enables the specified WDT counters.  All the counters specified in the mask
 644:Generated_Source\PSoC4/CyLFClk.c ****     *  are enabled.
 645:Generated_Source\PSoC4/CyLFClk.c ****     *
 646:Generated_Source\PSoC4/CyLFClk.c ****     * Parameters:
 647:Generated_Source\PSoC4/CyLFClk.c ****     *  counterMask: The mask of all counters to enable.
 648:Generated_Source\PSoC4/CyLFClk.c ****     *       Define                       Counter
 649:Generated_Source\PSoC4/CyLFClk.c ****     *      CY_SYS_WDT_COUNTER0_MASK      0
 650:Generated_Source\PSoC4/CyLFClk.c ****     *      CY_SYS_WDT_COUNTER1_MASK      1
 651:Generated_Source\PSoC4/CyLFClk.c ****     *      CY_SYS_WDT_COUNTER2_MASK      2
 652:Generated_Source\PSoC4/CyLFClk.c ****     *
 653:Generated_Source\PSoC4/CyLFClk.c ****     * Return:
 654:Generated_Source\PSoC4/CyLFClk.c ****     *  None
 655:Generated_Source\PSoC4/CyLFClk.c ****     *
 656:Generated_Source\PSoC4/CyLFClk.c ****     * Side Effects:
 657:Generated_Source\PSoC4/CyLFClk.c ****     *  Enabling or disabling WDT requires 3 LFCLK cycles to come into effect.
 658:Generated_Source\PSoC4/CyLFClk.c ****     *  Therefore, the WDT enable state must not be changed more than once in
 659:Generated_Source\PSoC4/CyLFClk.c ****     *  that period.
 660:Generated_Source\PSoC4/CyLFClk.c ****     *
 661:Generated_Source\PSoC4/CyLFClk.c ****     *  After WDT is enabled, it is illegal to write WDT configuration (WDT_CONFIG)
 662:Generated_Source\PSoC4/CyLFClk.c ****     *  and control (WDT_CONTROL) registers. This means that all WDT functions that
 663:Generated_Source\PSoC4/CyLFClk.c ****     *  contain 'write' in the name (with the exception of CySysWdtSetMatch()
 664:Generated_Source\PSoC4/CyLFClk.c ****     *  function) are illegal to call once WDT enabled.
 665:Generated_Source\PSoC4/CyLFClk.c ****     *
 666:Generated_Source\PSoC4/CyLFClk.c ****     *  PSoC 4100 / PSoC 4200:
 667:Generated_Source\PSoC4/CyLFClk.c ****     *  This function enables ILO.
ARM GAS  C:\Users\fabis\AppData\Local\Temp\ccvALjuz.s 			page 25


 668:Generated_Source\PSoC4/CyLFClk.c ****     *
 669:Generated_Source\PSoC4/CyLFClk.c ****     *  PSoC 4100-BL / PSoC 4200-BL and PSoC 4100M / PSoC 4200M:
 670:Generated_Source\PSoC4/CyLFClk.c ****     *  LFLCK should be configured before calling this function. The desired
 671:Generated_Source\PSoC4/CyLFClk.c ****     *  source should be enabled and configured to be the source for LFCLK.
 672:Generated_Source\PSoC4/CyLFClk.c ****     *
 673:Generated_Source\PSoC4/CyLFClk.c ****     *******************************************************************************/
 674:Generated_Source\PSoC4/CyLFClk.c ****     void CySysWdtEnable(uint32 counterMask)
 675:Generated_Source\PSoC4/CyLFClk.c ****     {
 696              		.loc 1 675 0
 697              		.cfi_startproc
 698              		@ args = 0, pretend = 0, frame = 8
 699              		@ frame_needed = 1, uses_anonymous_args = 0
 700 0000 80B5     		push	{r7, lr}
 701              		.cfi_def_cfa_offset 8
 702              		.cfi_offset 7, -8
 703              		.cfi_offset 14, -4
 704 0002 82B0     		sub	sp, sp, #8
 705              		.cfi_def_cfa_offset 16
 706 0004 00AF     		add	r7, sp, #0
 707              		.cfi_def_cfa_register 7
 708 0006 7860     		str	r0, [r7, #4]
 676:Generated_Source\PSoC4/CyLFClk.c ****         #if (!CY_IP_WCO)
 677:Generated_Source\PSoC4/CyLFClk.c ****             CySysClkIloStart();
 709              		.loc 1 677 0
 710 0008 FFF7FEFF 		bl	CySysClkIloStart
 678:Generated_Source\PSoC4/CyLFClk.c ****         #endif /* (!CY_IP_WCO) */
 679:Generated_Source\PSoC4/CyLFClk.c **** 
 680:Generated_Source\PSoC4/CyLFClk.c ****         CY_SYS_WDT_CONTROL_REG |= counterMask;
 711              		.loc 1 680 0
 712 000c 144B     		ldr	r3, .L67
 713 000e 144A     		ldr	r2, .L67
 714 0010 1168     		ldr	r1, [r2]
 715 0012 7A68     		ldr	r2, [r7, #4]
 716 0014 0A43     		orrs	r2, r1
 717 0016 1A60     		str	r2, [r3]
 681:Generated_Source\PSoC4/CyLFClk.c **** 
 682:Generated_Source\PSoC4/CyLFClk.c ****         if(0u != (counterMask & CY_SYS_WDT_COUNTER0_MASK))
 718              		.loc 1 682 0
 719 0018 7B68     		ldr	r3, [r7, #4]
 720 001a 0122     		movs	r2, #1
 721 001c 1340     		ands	r3, r2
 722 001e 05D0     		beq	.L60
 683:Generated_Source\PSoC4/CyLFClk.c ****         {
 684:Generated_Source\PSoC4/CyLFClk.c ****             while (0u == CySysWdtGetEnabledStatus(CY_SYS_WDT_COUNTER0))
 723              		.loc 1 684 0
 724 0020 C046     		nop
 725              	.L61:
 726              		.loc 1 684 0 is_stmt 0 discriminator 1
 727 0022 0020     		movs	r0, #0
 728 0024 FFF7FEFF 		bl	CySysWdtGetEnabledStatus
 729 0028 031E     		subs	r3, r0, #0
 730 002a FAD0     		beq	.L61
 731              	.L60:
 685:Generated_Source\PSoC4/CyLFClk.c ****             {
 686:Generated_Source\PSoC4/CyLFClk.c ****                 /* Wait for changes to come into effect */
 687:Generated_Source\PSoC4/CyLFClk.c ****             }
 688:Generated_Source\PSoC4/CyLFClk.c ****         }
ARM GAS  C:\Users\fabis\AppData\Local\Temp\ccvALjuz.s 			page 26


 689:Generated_Source\PSoC4/CyLFClk.c **** 
 690:Generated_Source\PSoC4/CyLFClk.c ****         if(0u != (counterMask & CY_SYS_WDT_COUNTER1_MASK))
 732              		.loc 1 690 0 is_stmt 1
 733 002c 7A68     		ldr	r2, [r7, #4]
 734 002e 8023     		movs	r3, #128
 735 0030 5B00     		lsls	r3, r3, #1
 736 0032 1340     		ands	r3, r2
 737 0034 05D0     		beq	.L62
 691:Generated_Source\PSoC4/CyLFClk.c ****         {
 692:Generated_Source\PSoC4/CyLFClk.c ****             while (0u == CySysWdtGetEnabledStatus(CY_SYS_WDT_COUNTER1))
 738              		.loc 1 692 0
 739 0036 C046     		nop
 740              	.L63:
 741              		.loc 1 692 0 is_stmt 0 discriminator 1
 742 0038 0120     		movs	r0, #1
 743 003a FFF7FEFF 		bl	CySysWdtGetEnabledStatus
 744 003e 031E     		subs	r3, r0, #0
 745 0040 FAD0     		beq	.L63
 746              	.L62:
 693:Generated_Source\PSoC4/CyLFClk.c ****             {
 694:Generated_Source\PSoC4/CyLFClk.c ****                 /* Wait for changes to come into effect */
 695:Generated_Source\PSoC4/CyLFClk.c ****             }
 696:Generated_Source\PSoC4/CyLFClk.c ****         }
 697:Generated_Source\PSoC4/CyLFClk.c **** 
 698:Generated_Source\PSoC4/CyLFClk.c ****         if(0u != (counterMask & CY_SYS_WDT_COUNTER2_MASK))
 747              		.loc 1 698 0 is_stmt 1
 748 0042 7A68     		ldr	r2, [r7, #4]
 749 0044 8023     		movs	r3, #128
 750 0046 5B02     		lsls	r3, r3, #9
 751 0048 1340     		ands	r3, r2
 752 004a 05D0     		beq	.L66
 699:Generated_Source\PSoC4/CyLFClk.c ****         {
 700:Generated_Source\PSoC4/CyLFClk.c ****             while (0u == CySysWdtGetEnabledStatus(CY_SYS_WDT_COUNTER2))
 753              		.loc 1 700 0
 754 004c C046     		nop
 755              	.L65:
 756              		.loc 1 700 0 is_stmt 0 discriminator 1
 757 004e 0220     		movs	r0, #2
 758 0050 FFF7FEFF 		bl	CySysWdtGetEnabledStatus
 759 0054 031E     		subs	r3, r0, #0
 760 0056 FAD0     		beq	.L65
 761              	.L66:
 701:Generated_Source\PSoC4/CyLFClk.c ****             {
 702:Generated_Source\PSoC4/CyLFClk.c ****                 /* Wait for changes to come into effect */
 703:Generated_Source\PSoC4/CyLFClk.c ****             }
 704:Generated_Source\PSoC4/CyLFClk.c ****         }
 705:Generated_Source\PSoC4/CyLFClk.c ****     }
 762              		.loc 1 705 0 is_stmt 1
 763 0058 C046     		nop
 764 005a BD46     		mov	sp, r7
 765 005c 02B0     		add	sp, sp, #8
 766              		@ sp needed
 767 005e 80BD     		pop	{r7, pc}
 768              	.L68:
 769              		.align	2
 770              	.L67:
 771 0060 10020B40 		.word	1074463248
ARM GAS  C:\Users\fabis\AppData\Local\Temp\ccvALjuz.s 			page 27


 772              		.cfi_endproc
 773              	.LFE11:
 774              		.size	CySysWdtEnable, .-CySysWdtEnable
 775              		.section	.text.CySysWdtDisable,"ax",%progbits
 776              		.align	2
 777              		.global	CySysWdtDisable
 778              		.code	16
 779              		.thumb_func
 780              		.type	CySysWdtDisable, %function
 781              	CySysWdtDisable:
 782              	.LFB12:
 706:Generated_Source\PSoC4/CyLFClk.c **** 
 707:Generated_Source\PSoC4/CyLFClk.c **** 
 708:Generated_Source\PSoC4/CyLFClk.c ****     /*******************************************************************************
 709:Generated_Source\PSoC4/CyLFClk.c ****     * Function Name: CySysWdtDisable
 710:Generated_Source\PSoC4/CyLFClk.c ****     ********************************************************************************
 711:Generated_Source\PSoC4/CyLFClk.c ****     *
 712:Generated_Source\PSoC4/CyLFClk.c ****     * Summary:
 713:Generated_Source\PSoC4/CyLFClk.c ****     *  Disables the specified WDT counters. All the counters specified in the mask
 714:Generated_Source\PSoC4/CyLFClk.c ****     *  are disabled. The function waits for the changes to come into effect.
 715:Generated_Source\PSoC4/CyLFClk.c ****     *
 716:Generated_Source\PSoC4/CyLFClk.c ****     * Parameters:
 717:Generated_Source\PSoC4/CyLFClk.c ****     *  uint32 counterMask: The mask of all counters to disable
 718:Generated_Source\PSoC4/CyLFClk.c ****     *    Define                       Counter
 719:Generated_Source\PSoC4/CyLFClk.c ****     *   CY_SYS_WDT_COUNTER0_MASK      0
 720:Generated_Source\PSoC4/CyLFClk.c ****     *   CY_SYS_WDT_COUNTER1_MASK      1
 721:Generated_Source\PSoC4/CyLFClk.c ****     *   CY_SYS_WDT_COUNTER2_MASK      2
 722:Generated_Source\PSoC4/CyLFClk.c ****     *
 723:Generated_Source\PSoC4/CyLFClk.c ****     * Return:
 724:Generated_Source\PSoC4/CyLFClk.c ****     *   None.
 725:Generated_Source\PSoC4/CyLFClk.c ****     *
 726:Generated_Source\PSoC4/CyLFClk.c ****     *******************************************************************************/
 727:Generated_Source\PSoC4/CyLFClk.c ****     void CySysWdtDisable(uint32 counterMask)
 728:Generated_Source\PSoC4/CyLFClk.c ****     {
 783              		.loc 1 728 0
 784              		.cfi_startproc
 785              		@ args = 0, pretend = 0, frame = 8
 786              		@ frame_needed = 1, uses_anonymous_args = 0
 787 0000 80B5     		push	{r7, lr}
 788              		.cfi_def_cfa_offset 8
 789              		.cfi_offset 7, -8
 790              		.cfi_offset 14, -4
 791 0002 82B0     		sub	sp, sp, #8
 792              		.cfi_def_cfa_offset 16
 793 0004 00AF     		add	r7, sp, #0
 794              		.cfi_def_cfa_register 7
 795 0006 7860     		str	r0, [r7, #4]
 729:Generated_Source\PSoC4/CyLFClk.c ****         if (0uL == CySysWdtLocked())
 796              		.loc 1 729 0
 797 0008 FFF7FEFF 		bl	CySysWdtLocked
 798 000c 031E     		subs	r3, r0, #0
 799 000e 26D1     		bne	.L76
 730:Generated_Source\PSoC4/CyLFClk.c ****         {
 731:Generated_Source\PSoC4/CyLFClk.c ****             CY_SYS_WDT_CONTROL_REG &= ~counterMask;
 800              		.loc 1 731 0
 801 0010 154B     		ldr	r3, .L77
 802 0012 154A     		ldr	r2, .L77
ARM GAS  C:\Users\fabis\AppData\Local\Temp\ccvALjuz.s 			page 28


 803 0014 1268     		ldr	r2, [r2]
 804 0016 7968     		ldr	r1, [r7, #4]
 805 0018 C943     		mvns	r1, r1
 806 001a 0A40     		ands	r2, r1
 807 001c 1A60     		str	r2, [r3]
 732:Generated_Source\PSoC4/CyLFClk.c **** 
 733:Generated_Source\PSoC4/CyLFClk.c ****             if(0u != (counterMask & CY_SYS_WDT_COUNTER0_MASK))
 808              		.loc 1 733 0
 809 001e 7B68     		ldr	r3, [r7, #4]
 810 0020 0122     		movs	r2, #1
 811 0022 1340     		ands	r3, r2
 812 0024 05D0     		beq	.L71
 734:Generated_Source\PSoC4/CyLFClk.c ****             {
 735:Generated_Source\PSoC4/CyLFClk.c ****                 while (0u != CySysWdtGetEnabledStatus(CY_SYS_WDT_COUNTER0))
 813              		.loc 1 735 0
 814 0026 C046     		nop
 815              	.L72:
 816              		.loc 1 735 0 is_stmt 0 discriminator 1
 817 0028 0020     		movs	r0, #0
 818 002a FFF7FEFF 		bl	CySysWdtGetEnabledStatus
 819 002e 031E     		subs	r3, r0, #0
 820 0030 FAD1     		bne	.L72
 821              	.L71:
 736:Generated_Source\PSoC4/CyLFClk.c ****                 {
 737:Generated_Source\PSoC4/CyLFClk.c ****                     /* Wait for changes to come into effect */
 738:Generated_Source\PSoC4/CyLFClk.c ****                 }
 739:Generated_Source\PSoC4/CyLFClk.c ****             }
 740:Generated_Source\PSoC4/CyLFClk.c **** 
 741:Generated_Source\PSoC4/CyLFClk.c ****             if(0u != (counterMask & CY_SYS_WDT_COUNTER1_MASK))
 822              		.loc 1 741 0 is_stmt 1
 823 0032 7A68     		ldr	r2, [r7, #4]
 824 0034 8023     		movs	r3, #128
 825 0036 5B00     		lsls	r3, r3, #1
 826 0038 1340     		ands	r3, r2
 827 003a 05D0     		beq	.L73
 742:Generated_Source\PSoC4/CyLFClk.c ****             {
 743:Generated_Source\PSoC4/CyLFClk.c ****                 while (0u != CySysWdtGetEnabledStatus(CY_SYS_WDT_COUNTER1))
 828              		.loc 1 743 0
 829 003c C046     		nop
 830              	.L74:
 831              		.loc 1 743 0 is_stmt 0 discriminator 1
 832 003e 0120     		movs	r0, #1
 833 0040 FFF7FEFF 		bl	CySysWdtGetEnabledStatus
 834 0044 031E     		subs	r3, r0, #0
 835 0046 FAD1     		bne	.L74
 836              	.L73:
 744:Generated_Source\PSoC4/CyLFClk.c ****                 {
 745:Generated_Source\PSoC4/CyLFClk.c ****                     /* Wait for changes to come into effect */
 746:Generated_Source\PSoC4/CyLFClk.c ****                 }
 747:Generated_Source\PSoC4/CyLFClk.c ****             }
 748:Generated_Source\PSoC4/CyLFClk.c **** 
 749:Generated_Source\PSoC4/CyLFClk.c ****             if(0u != (counterMask & CY_SYS_WDT_COUNTER2_MASK))
 837              		.loc 1 749 0 is_stmt 1
 838 0048 7A68     		ldr	r2, [r7, #4]
 839 004a 8023     		movs	r3, #128
 840 004c 5B02     		lsls	r3, r3, #9
 841 004e 1340     		ands	r3, r2
ARM GAS  C:\Users\fabis\AppData\Local\Temp\ccvALjuz.s 			page 29


 842 0050 05D0     		beq	.L76
 750:Generated_Source\PSoC4/CyLFClk.c ****             {
 751:Generated_Source\PSoC4/CyLFClk.c ****                 while (0u != CySysWdtGetEnabledStatus(CY_SYS_WDT_COUNTER2))
 843              		.loc 1 751 0
 844 0052 C046     		nop
 845              	.L75:
 846              		.loc 1 751 0 is_stmt 0 discriminator 1
 847 0054 0220     		movs	r0, #2
 848 0056 FFF7FEFF 		bl	CySysWdtGetEnabledStatus
 849 005a 031E     		subs	r3, r0, #0
 850 005c FAD1     		bne	.L75
 851              	.L76:
 752:Generated_Source\PSoC4/CyLFClk.c ****                 {
 753:Generated_Source\PSoC4/CyLFClk.c ****                     /* Wait for changes to come into effect */
 754:Generated_Source\PSoC4/CyLFClk.c ****                 }
 755:Generated_Source\PSoC4/CyLFClk.c ****             }
 756:Generated_Source\PSoC4/CyLFClk.c ****         }
 757:Generated_Source\PSoC4/CyLFClk.c ****     }
 852              		.loc 1 757 0 is_stmt 1
 853 005e C046     		nop
 854 0060 BD46     		mov	sp, r7
 855 0062 02B0     		add	sp, sp, #8
 856              		@ sp needed
 857 0064 80BD     		pop	{r7, pc}
 858              	.L78:
 859 0066 C046     		.align	2
 860              	.L77:
 861 0068 10020B40 		.word	1074463248
 862              		.cfi_endproc
 863              	.LFE12:
 864              		.size	CySysWdtDisable, .-CySysWdtDisable
 865              		.section	.text.CySysWdtSetCascade,"ax",%progbits
 866              		.align	2
 867              		.global	CySysWdtSetCascade
 868              		.code	16
 869              		.thumb_func
 870              		.type	CySysWdtSetCascade, %function
 871              	CySysWdtSetCascade:
 872              	.LFB13:
 758:Generated_Source\PSoC4/CyLFClk.c **** 
 759:Generated_Source\PSoC4/CyLFClk.c **** 
 760:Generated_Source\PSoC4/CyLFClk.c ****     /*******************************************************************************
 761:Generated_Source\PSoC4/CyLFClk.c ****     * Function Name: CySysWdtSetCascade
 762:Generated_Source\PSoC4/CyLFClk.c ****     ********************************************************************************
 763:Generated_Source\PSoC4/CyLFClk.c ****     *
 764:Generated_Source\PSoC4/CyLFClk.c ****     * Summary:
 765:Generated_Source\PSoC4/CyLFClk.c ****     *   Writes the two WDT cascade values based on the combination of mask values
 766:Generated_Source\PSoC4/CyLFClk.c ****     *   specified.
 767:Generated_Source\PSoC4/CyLFClk.c ****     *
 768:Generated_Source\PSoC4/CyLFClk.c ****     * Parameters:
 769:Generated_Source\PSoC4/CyLFClk.c ****     *   cascadeMask: The mask value used to set or clear the cascade values.
 770:Generated_Source\PSoC4/CyLFClk.c ****     *   Define                     Cascade
 771:Generated_Source\PSoC4/CyLFClk.c ****     *   CY_SYS_WDT_CASCADE_NONE    Neither
 772:Generated_Source\PSoC4/CyLFClk.c ****     *   CY_SYS_WDT_CASCADE_01      Cascade 01
 773:Generated_Source\PSoC4/CyLFClk.c ****     *   CY_SYS_WDT_CASCADE_12      Cascade 12
 774:Generated_Source\PSoC4/CyLFClk.c ****     *
 775:Generated_Source\PSoC4/CyLFClk.c ****     *   To set both cascade modes, two defines should be ORed:
ARM GAS  C:\Users\fabis\AppData\Local\Temp\ccvALjuz.s 			page 30


 776:Generated_Source\PSoC4/CyLFClk.c ****     *   (CY_SYS_WDT_CASCADE_01 | CY_SYS_WDT_CASCADE_12)
 777:Generated_Source\PSoC4/CyLFClk.c ****     *
 778:Generated_Source\PSoC4/CyLFClk.c ****     * Return:
 779:Generated_Source\PSoC4/CyLFClk.c ****     *   None.
 780:Generated_Source\PSoC4/CyLFClk.c ****     *
 781:Generated_Source\PSoC4/CyLFClk.c ****     * Side effects:
 782:Generated_Source\PSoC4/CyLFClk.c ****     *   If only one cascade mask is specified, the second cascade is disabled.
 783:Generated_Source\PSoC4/CyLFClk.c ****     *   To set both cascade modes, two defines should be ORed:
 784:Generated_Source\PSoC4/CyLFClk.c ****     *    (CY_SYS_WDT_CASCADE_01 | CY_SYS_WDT_CASCADE_12).
 785:Generated_Source\PSoC4/CyLFClk.c ****     *
 786:Generated_Source\PSoC4/CyLFClk.c ****     *   WDT counters that are part of the specified cascade should be disabled.
 787:Generated_Source\PSoC4/CyLFClk.c ****     *   Otherwise this function call has no effect. If the specified
 788:Generated_Source\PSoC4/CyLFClk.c ****     *   counter is enabled, call CySysWdtDisable() function with the corresponding
 789:Generated_Source\PSoC4/CyLFClk.c ****     *   parameter to disable the specified counter and wait for it to stop. This may
 790:Generated_Source\PSoC4/CyLFClk.c ****     *   take up to 3 LFCLK cycles.
 791:Generated_Source\PSoC4/CyLFClk.c ****     *
 792:Generated_Source\PSoC4/CyLFClk.c ****     *******************************************************************************/
 793:Generated_Source\PSoC4/CyLFClk.c ****     void CySysWdtSetCascade(uint32 cascadeMask)
 794:Generated_Source\PSoC4/CyLFClk.c ****     {
 873              		.loc 1 794 0
 874              		.cfi_startproc
 875              		@ args = 0, pretend = 0, frame = 16
 876              		@ frame_needed = 1, uses_anonymous_args = 0
 877 0000 90B5     		push	{r4, r7, lr}
 878              		.cfi_def_cfa_offset 12
 879              		.cfi_offset 4, -12
 880              		.cfi_offset 7, -8
 881              		.cfi_offset 14, -4
 882 0002 85B0     		sub	sp, sp, #20
 883              		.cfi_def_cfa_offset 32
 884 0004 00AF     		add	r7, sp, #0
 885              		.cfi_def_cfa_register 7
 886 0006 7860     		str	r0, [r7, #4]
 795:Generated_Source\PSoC4/CyLFClk.c ****         uint32 configRegValue;
 796:Generated_Source\PSoC4/CyLFClk.c ****         uint32 countersEnableStatus;
 797:Generated_Source\PSoC4/CyLFClk.c **** 
 798:Generated_Source\PSoC4/CyLFClk.c ****         countersEnableStatus = CySysWdtGetEnabledStatus(CY_SYS_WDT_COUNTER0) |
 887              		.loc 1 798 0
 888 0008 0020     		movs	r0, #0
 889 000a FFF7FEFF 		bl	CySysWdtGetEnabledStatus
 890 000e 0400     		movs	r4, r0
 799:Generated_Source\PSoC4/CyLFClk.c ****                             CySysWdtGetEnabledStatus(CY_SYS_WDT_COUNTER1) |
 891              		.loc 1 799 0
 892 0010 0120     		movs	r0, #1
 893 0012 FFF7FEFF 		bl	CySysWdtGetEnabledStatus
 894 0016 0300     		movs	r3, r0
 798:Generated_Source\PSoC4/CyLFClk.c ****                             CySysWdtGetEnabledStatus(CY_SYS_WDT_COUNTER1) |
 895              		.loc 1 798 0
 896 0018 1C43     		orrs	r4, r3
 800:Generated_Source\PSoC4/CyLFClk.c ****                             CySysWdtGetEnabledStatus(CY_SYS_WDT_COUNTER2);
 897              		.loc 1 800 0
 898 001a 0220     		movs	r0, #2
 899 001c FFF7FEFF 		bl	CySysWdtGetEnabledStatus
 900 0020 0300     		movs	r3, r0
 798:Generated_Source\PSoC4/CyLFClk.c ****                             CySysWdtGetEnabledStatus(CY_SYS_WDT_COUNTER1) |
 901              		.loc 1 798 0
 902 0022 2343     		orrs	r3, r4
ARM GAS  C:\Users\fabis\AppData\Local\Temp\ccvALjuz.s 			page 31


 903 0024 FB60     		str	r3, [r7, #12]
 801:Generated_Source\PSoC4/CyLFClk.c **** 
 802:Generated_Source\PSoC4/CyLFClk.c ****         if (0u == countersEnableStatus)
 904              		.loc 1 802 0
 905 0026 FB68     		ldr	r3, [r7, #12]
 906 0028 002B     		cmp	r3, #0
 907 002a 0DD1     		bne	.L81
 803:Generated_Source\PSoC4/CyLFClk.c ****         {
 804:Generated_Source\PSoC4/CyLFClk.c ****             configRegValue = CY_SYS_WDT_CONFIG_REG;
 908              		.loc 1 804 0
 909 002c 084B     		ldr	r3, .L82
 910 002e 1B68     		ldr	r3, [r3]
 911 0030 BB60     		str	r3, [r7, #8]
 805:Generated_Source\PSoC4/CyLFClk.c ****             configRegValue &= ((uint32)(~(CY_SYS_WDT_CASCADE_01|CY_SYS_WDT_CASCADE_12)));
 912              		.loc 1 805 0
 913 0032 BB68     		ldr	r3, [r7, #8]
 914 0034 074A     		ldr	r2, .L82+4
 915 0036 1340     		ands	r3, r2
 916 0038 BB60     		str	r3, [r7, #8]
 806:Generated_Source\PSoC4/CyLFClk.c ****             configRegValue |= cascadeMask;
 917              		.loc 1 806 0
 918 003a BA68     		ldr	r2, [r7, #8]
 919 003c 7B68     		ldr	r3, [r7, #4]
 920 003e 1343     		orrs	r3, r2
 921 0040 BB60     		str	r3, [r7, #8]
 807:Generated_Source\PSoC4/CyLFClk.c ****             CY_SYS_WDT_CONFIG_REG = configRegValue;
 922              		.loc 1 807 0
 923 0042 034B     		ldr	r3, .L82
 924 0044 BA68     		ldr	r2, [r7, #8]
 925 0046 1A60     		str	r2, [r3]
 926              	.L81:
 808:Generated_Source\PSoC4/CyLFClk.c ****         }
 809:Generated_Source\PSoC4/CyLFClk.c ****     }
 927              		.loc 1 809 0
 928 0048 C046     		nop
 929 004a BD46     		mov	sp, r7
 930 004c 05B0     		add	sp, sp, #20
 931              		@ sp needed
 932 004e 90BD     		pop	{r4, r7, pc}
 933              	.L83:
 934              		.align	2
 935              	.L82:
 936 0050 0C020B40 		.word	1074463244
 937 0054 F7F7FFFF 		.word	-2057
 938              		.cfi_endproc
 939              	.LFE13:
 940              		.size	CySysWdtSetCascade, .-CySysWdtSetCascade
 941              		.section	.text.CySysWdtGetCascade,"ax",%progbits
 942              		.align	2
 943              		.global	CySysWdtGetCascade
 944              		.code	16
 945              		.thumb_func
 946              		.type	CySysWdtGetCascade, %function
 947              	CySysWdtGetCascade:
 948              	.LFB14:
 810:Generated_Source\PSoC4/CyLFClk.c **** 
 811:Generated_Source\PSoC4/CyLFClk.c **** 
ARM GAS  C:\Users\fabis\AppData\Local\Temp\ccvALjuz.s 			page 32


 812:Generated_Source\PSoC4/CyLFClk.c ****     /*******************************************************************************
 813:Generated_Source\PSoC4/CyLFClk.c ****     * Function Name: CySysWdtGetCascade
 814:Generated_Source\PSoC4/CyLFClk.c ****     ********************************************************************************
 815:Generated_Source\PSoC4/CyLFClk.c ****     *
 816:Generated_Source\PSoC4/CyLFClk.c ****     * Summary:
 817:Generated_Source\PSoC4/CyLFClk.c ****     *   Reads the two WDT cascade values returning a mask of the bits set.
 818:Generated_Source\PSoC4/CyLFClk.c ****     *
 819:Generated_Source\PSoC4/CyLFClk.c ****     * Parameters:
 820:Generated_Source\PSoC4/CyLFClk.c ****     *   None.
 821:Generated_Source\PSoC4/CyLFClk.c ****     *
 822:Generated_Source\PSoC4/CyLFClk.c ****     * Return:
 823:Generated_Source\PSoC4/CyLFClk.c ****     *   The mask of the cascade values set.
 824:Generated_Source\PSoC4/CyLFClk.c ****     *   Define                     Cascade
 825:Generated_Source\PSoC4/CyLFClk.c ****     *   CY_SYS_WDT_CASCADE_NONE    Neither
 826:Generated_Source\PSoC4/CyLFClk.c ****     *   CY_SYS_WDT_CASCADE_01      Cascade 01
 827:Generated_Source\PSoC4/CyLFClk.c ****     *   CY_SYS_WDT_CASCADE_12      Cascade 12
 828:Generated_Source\PSoC4/CyLFClk.c ****     *
 829:Generated_Source\PSoC4/CyLFClk.c ****     *******************************************************************************/
 830:Generated_Source\PSoC4/CyLFClk.c ****     uint32 CySysWdtGetCascade(void)
 831:Generated_Source\PSoC4/CyLFClk.c ****     {
 949              		.loc 1 831 0
 950              		.cfi_startproc
 951              		@ args = 0, pretend = 0, frame = 0
 952              		@ frame_needed = 1, uses_anonymous_args = 0
 953 0000 80B5     		push	{r7, lr}
 954              		.cfi_def_cfa_offset 8
 955              		.cfi_offset 7, -8
 956              		.cfi_offset 14, -4
 957 0002 00AF     		add	r7, sp, #0
 958              		.cfi_def_cfa_register 7
 832:Generated_Source\PSoC4/CyLFClk.c ****         return (CY_SYS_WDT_CONFIG_REG & (CY_SYS_WDT_CASCADE_01 | CY_SYS_WDT_CASCADE_12));
 959              		.loc 1 832 0
 960 0004 034B     		ldr	r3, .L86
 961 0006 1B68     		ldr	r3, [r3]
 962 0008 034A     		ldr	r2, .L86+4
 963 000a 1340     		ands	r3, r2
 833:Generated_Source\PSoC4/CyLFClk.c ****     }
 964              		.loc 1 833 0
 965 000c 1800     		movs	r0, r3
 966 000e BD46     		mov	sp, r7
 967              		@ sp needed
 968 0010 80BD     		pop	{r7, pc}
 969              	.L87:
 970 0012 C046     		.align	2
 971              	.L86:
 972 0014 0C020B40 		.word	1074463244
 973 0018 08080000 		.word	2056
 974              		.cfi_endproc
 975              	.LFE14:
 976              		.size	CySysWdtGetCascade, .-CySysWdtGetCascade
 977              		.section	.text.CySysWdtSetMatch,"ax",%progbits
 978              		.align	2
 979              		.global	CySysWdtSetMatch
 980              		.code	16
 981              		.thumb_func
 982              		.type	CySysWdtSetMatch, %function
 983              	CySysWdtSetMatch:
ARM GAS  C:\Users\fabis\AppData\Local\Temp\ccvALjuz.s 			page 33


 984              	.LFB15:
 834:Generated_Source\PSoC4/CyLFClk.c **** 
 835:Generated_Source\PSoC4/CyLFClk.c **** 
 836:Generated_Source\PSoC4/CyLFClk.c ****     /*******************************************************************************
 837:Generated_Source\PSoC4/CyLFClk.c ****     * Function Name: CySysWdtSetMatch
 838:Generated_Source\PSoC4/CyLFClk.c ****     ********************************************************************************
 839:Generated_Source\PSoC4/CyLFClk.c ****     *
 840:Generated_Source\PSoC4/CyLFClk.c ****     * Summary:
 841:Generated_Source\PSoC4/CyLFClk.c ****     *  Configures the WDT counter match comparison value.
 842:Generated_Source\PSoC4/CyLFClk.c ****     *
 843:Generated_Source\PSoC4/CyLFClk.c ****     * Parameters:
 844:Generated_Source\PSoC4/CyLFClk.c ****     *  counterNum:
 845:Generated_Source\PSoC4/CyLFClk.c ****     *   Valid range [0-1]. The number of the WDT counter. The match values are not
 846:Generated_Source\PSoC4/CyLFClk.c ****     *   supported by counter 2.
 847:Generated_Source\PSoC4/CyLFClk.c ****     *
 848:Generated_Source\PSoC4/CyLFClk.c ****     *  match:
 849:Generated_Source\PSoC4/CyLFClk.c ****     *   Valid range [0-65535]. The value to be used to match against the counter.
 850:Generated_Source\PSoC4/CyLFClk.c ****     *
 851:Generated_Source\PSoC4/CyLFClk.c ****     * Return:
 852:Generated_Source\PSoC4/CyLFClk.c ****     *   None.
 853:Generated_Source\PSoC4/CyLFClk.c ****     *
 854:Generated_Source\PSoC4/CyLFClk.c ****     *******************************************************************************/
 855:Generated_Source\PSoC4/CyLFClk.c ****     void CySysWdtSetMatch(uint32 counterNum, uint32 match)
 856:Generated_Source\PSoC4/CyLFClk.c ****     {
 985              		.loc 1 856 0
 986              		.cfi_startproc
 987              		@ args = 0, pretend = 0, frame = 16
 988              		@ frame_needed = 1, uses_anonymous_args = 0
 989 0000 80B5     		push	{r7, lr}
 990              		.cfi_def_cfa_offset 8
 991              		.cfi_offset 7, -8
 992              		.cfi_offset 14, -4
 993 0002 84B0     		sub	sp, sp, #16
 994              		.cfi_def_cfa_offset 24
 995 0004 00AF     		add	r7, sp, #0
 996              		.cfi_def_cfa_register 7
 997 0006 7860     		str	r0, [r7, #4]
 998 0008 3960     		str	r1, [r7]
 857:Generated_Source\PSoC4/CyLFClk.c ****         uint32 regValue;
 858:Generated_Source\PSoC4/CyLFClk.c **** 
 859:Generated_Source\PSoC4/CyLFClk.c ****         CYASSERT((counterNum == CY_SYS_WDT_COUNTER0) ||
 999              		.loc 1 859 0
 1000 000a 7B68     		ldr	r3, [r7, #4]
 1001 000c 002B     		cmp	r3, #0
 1002 000e 02D0     		beq	.L89
 1003              		.loc 1 859 0 is_stmt 0 discriminator 2
 1004 0010 7B68     		ldr	r3, [r7, #4]
 1005 0012 012B     		cmp	r3, #1
 1006 0014 01D1     		bne	.L90
 1007              	.L89:
 1008              		.loc 1 859 0 discriminator 3
 1009 0016 0123     		movs	r3, #1
 1010 0018 00E0     		b	.L91
 1011              	.L90:
 1012              		.loc 1 859 0 discriminator 4
 1013 001a 0023     		movs	r3, #0
 1014              	.L91:
ARM GAS  C:\Users\fabis\AppData\Local\Temp\ccvALjuz.s 			page 34


 1015              		.loc 1 859 0 discriminator 6
 1016 001c 002B     		cmp	r3, #0
 1017 001e 02D1     		bne	.L92
 1018              		.loc 1 859 0 discriminator 7
 1019 0020 0020     		movs	r0, #0
 1020 0022 FFF7FEFF 		bl	CyHalt
 1021              	.L92:
 860:Generated_Source\PSoC4/CyLFClk.c ****                  (counterNum == CY_SYS_WDT_COUNTER1));
 861:Generated_Source\PSoC4/CyLFClk.c **** 
 862:Generated_Source\PSoC4/CyLFClk.c ****         /* Wait for previous changes to come into effect */
 863:Generated_Source\PSoC4/CyLFClk.c ****         CyDelayUs(CY_SYS_WDT_3LFCLK_DELAY_US);
 1022              		.loc 1 863 0 is_stmt 1
 1023 0026 C920     		movs	r0, #201
 1024 0028 FFF7FEFF 		bl	CyDelayUs
 864:Generated_Source\PSoC4/CyLFClk.c **** 
 865:Generated_Source\PSoC4/CyLFClk.c ****         regValue = CY_SYS_WDT_MATCH_REG;
 1025              		.loc 1 865 0
 1026 002c 0D4B     		ldr	r3, .L93
 1027 002e 1B68     		ldr	r3, [r3]
 1028 0030 FB60     		str	r3, [r7, #12]
 866:Generated_Source\PSoC4/CyLFClk.c ****         regValue &= (uint32)~((uint32)(CY_SYS_WDT_LOWER_16BITS_MASK << (counterNum * CY_SYS_WDT_CNT
 1029              		.loc 1 866 0
 1030 0032 7B68     		ldr	r3, [r7, #4]
 1031 0034 1B01     		lsls	r3, r3, #4
 1032 0036 0C4A     		ldr	r2, .L93+4
 1033 0038 9A40     		lsls	r2, r2, r3
 1034 003a 1300     		movs	r3, r2
 1035 003c DA43     		mvns	r2, r3
 1036 003e FB68     		ldr	r3, [r7, #12]
 1037 0040 1340     		ands	r3, r2
 1038 0042 FB60     		str	r3, [r7, #12]
 867:Generated_Source\PSoC4/CyLFClk.c ****         CY_SYS_WDT_MATCH_REG = (regValue | (match << (counterNum * CY_SYS_WDT_CNT_MATCH_SHIFT)));
 1039              		.loc 1 867 0
 1040 0044 074B     		ldr	r3, .L93
 1041 0046 7A68     		ldr	r2, [r7, #4]
 1042 0048 1201     		lsls	r2, r2, #4
 1043 004a 3968     		ldr	r1, [r7]
 1044 004c 9140     		lsls	r1, r1, r2
 1045 004e FA68     		ldr	r2, [r7, #12]
 1046 0050 0A43     		orrs	r2, r1
 1047 0052 1A60     		str	r2, [r3]
 868:Generated_Source\PSoC4/CyLFClk.c **** 
 869:Generated_Source\PSoC4/CyLFClk.c ****         /* Make sure match synchronization has started */
 870:Generated_Source\PSoC4/CyLFClk.c ****         CyDelayUs(CY_SYS_WDT_1LFCLK_DELAY_US);
 1048              		.loc 1 870 0
 1049 0054 4320     		movs	r0, #67
 1050 0056 FFF7FEFF 		bl	CyDelayUs
 871:Generated_Source\PSoC4/CyLFClk.c ****     }
 1051              		.loc 1 871 0
 1052 005a C046     		nop
 1053 005c BD46     		mov	sp, r7
 1054 005e 04B0     		add	sp, sp, #16
 1055              		@ sp needed
 1056 0060 80BD     		pop	{r7, pc}
 1057              	.L94:
 1058 0062 C046     		.align	2
 1059              	.L93:
ARM GAS  C:\Users\fabis\AppData\Local\Temp\ccvALjuz.s 			page 35


 1060 0064 08020B40 		.word	1074463240
 1061 0068 FFFF0000 		.word	65535
 1062              		.cfi_endproc
 1063              	.LFE15:
 1064              		.size	CySysWdtSetMatch, .-CySysWdtSetMatch
 1065              		.section	.text.CySysWdtSetToggleBit,"ax",%progbits
 1066              		.align	2
 1067              		.global	CySysWdtSetToggleBit
 1068              		.code	16
 1069              		.thumb_func
 1070              		.type	CySysWdtSetToggleBit, %function
 1071              	CySysWdtSetToggleBit:
 1072              	.LFB16:
 872:Generated_Source\PSoC4/CyLFClk.c **** 
 873:Generated_Source\PSoC4/CyLFClk.c **** 
 874:Generated_Source\PSoC4/CyLFClk.c ****     /*******************************************************************************
 875:Generated_Source\PSoC4/CyLFClk.c ****     * Function Name: CySysWdtSetToggleBit
 876:Generated_Source\PSoC4/CyLFClk.c ****     ********************************************************************************
 877:Generated_Source\PSoC4/CyLFClk.c ****     *
 878:Generated_Source\PSoC4/CyLFClk.c ****     * Summary:
 879:Generated_Source\PSoC4/CyLFClk.c ****     *  Configures which bit in WDT counter 2 to monitor for a toggle. When that
 880:Generated_Source\PSoC4/CyLFClk.c ****     *  bit toggles, an interrupt is generated if the mode for counter 2 has
 881:Generated_Source\PSoC4/CyLFClk.c ****     *  enabled interrupts.
 882:Generated_Source\PSoC4/CyLFClk.c ****     *
 883:Generated_Source\PSoC4/CyLFClk.c ****     * Parameters:
 884:Generated_Source\PSoC4/CyLFClk.c ****     *  bit:
 885:Generated_Source\PSoC4/CyLFClk.c ****     *   Valid range [0-31].  Counter 2 bit to monitor for a toggle.
 886:Generated_Source\PSoC4/CyLFClk.c ****     *
 887:Generated_Source\PSoC4/CyLFClk.c ****     * Return:
 888:Generated_Source\PSoC4/CyLFClk.c ****     *   None.
 889:Generated_Source\PSoC4/CyLFClk.c ****     *
 890:Generated_Source\PSoC4/CyLFClk.c ****     * Side effects:
 891:Generated_Source\PSoC4/CyLFClk.c ****     *   WDT Counter 2 should be disabled. Otherwise this function call has no
 892:Generated_Source\PSoC4/CyLFClk.c ****     *   effect.
 893:Generated_Source\PSoC4/CyLFClk.c ****     *
 894:Generated_Source\PSoC4/CyLFClk.c ****     *   If the specified counter is enabled, call the CySysWdtDisable() function with
 895:Generated_Source\PSoC4/CyLFClk.c ****     *   the corresponding parameter to disable the specified counter and wait for it to
 896:Generated_Source\PSoC4/CyLFClk.c ****     *   stop. This may take up to 3 LFCLK cycles.
 897:Generated_Source\PSoC4/CyLFClk.c ****     *
 898:Generated_Source\PSoC4/CyLFClk.c ****     *******************************************************************************/
 899:Generated_Source\PSoC4/CyLFClk.c ****     void CySysWdtSetToggleBit(uint32 bits)
 900:Generated_Source\PSoC4/CyLFClk.c ****     {
 1073              		.loc 1 900 0
 1074              		.cfi_startproc
 1075              		@ args = 0, pretend = 0, frame = 16
 1076              		@ frame_needed = 1, uses_anonymous_args = 0
 1077 0000 80B5     		push	{r7, lr}
 1078              		.cfi_def_cfa_offset 8
 1079              		.cfi_offset 7, -8
 1080              		.cfi_offset 14, -4
 1081 0002 84B0     		sub	sp, sp, #16
 1082              		.cfi_def_cfa_offset 24
 1083 0004 00AF     		add	r7, sp, #0
 1084              		.cfi_def_cfa_register 7
 1085 0006 7860     		str	r0, [r7, #4]
 901:Generated_Source\PSoC4/CyLFClk.c ****         uint32 configRegValue;
 902:Generated_Source\PSoC4/CyLFClk.c **** 
ARM GAS  C:\Users\fabis\AppData\Local\Temp\ccvALjuz.s 			page 36


 903:Generated_Source\PSoC4/CyLFClk.c ****         if (0u == CySysWdtGetEnabledStatus(CY_SYS_WDT_COUNTER2))
 1086              		.loc 1 903 0
 1087 0008 0220     		movs	r0, #2
 1088 000a FFF7FEFF 		bl	CySysWdtGetEnabledStatus
 1089 000e 031E     		subs	r3, r0, #0
 1090 0010 11D1     		bne	.L97
 904:Generated_Source\PSoC4/CyLFClk.c ****         {
 905:Generated_Source\PSoC4/CyLFClk.c ****             configRegValue = CY_SYS_WDT_CONFIG_REG;
 1091              		.loc 1 905 0
 1092 0012 0B4B     		ldr	r3, .L98
 1093 0014 1B68     		ldr	r3, [r3]
 1094 0016 FB60     		str	r3, [r7, #12]
 906:Generated_Source\PSoC4/CyLFClk.c ****             configRegValue &= (uint32)(~((uint32)(CY_SYS_WDT_CONFIG_BITS2_MASK << CY_SYS_WDT_CONFIG
 1095              		.loc 1 906 0
 1096 0018 FB68     		ldr	r3, [r7, #12]
 1097 001a 0A4A     		ldr	r2, .L98+4
 1098 001c 1340     		ands	r3, r2
 1099 001e FB60     		str	r3, [r7, #12]
 907:Generated_Source\PSoC4/CyLFClk.c ****             configRegValue |= ((bits & CY_SYS_WDT_CONFIG_BITS2_MASK) << CY_SYS_WDT_CONFIG_BITS2_POS
 1100              		.loc 1 907 0
 1101 0020 7B68     		ldr	r3, [r7, #4]
 1102 0022 1A06     		lsls	r2, r3, #24
 1103 0024 F823     		movs	r3, #248
 1104 0026 5B05     		lsls	r3, r3, #21
 1105 0028 1340     		ands	r3, r2
 1106 002a FA68     		ldr	r2, [r7, #12]
 1107 002c 1343     		orrs	r3, r2
 1108 002e FB60     		str	r3, [r7, #12]
 908:Generated_Source\PSoC4/CyLFClk.c ****             CY_SYS_WDT_CONFIG_REG = configRegValue;
 1109              		.loc 1 908 0
 1110 0030 034B     		ldr	r3, .L98
 1111 0032 FA68     		ldr	r2, [r7, #12]
 1112 0034 1A60     		str	r2, [r3]
 1113              	.L97:
 909:Generated_Source\PSoC4/CyLFClk.c ****         }
 910:Generated_Source\PSoC4/CyLFClk.c ****     }
 1114              		.loc 1 910 0
 1115 0036 C046     		nop
 1116 0038 BD46     		mov	sp, r7
 1117 003a 04B0     		add	sp, sp, #16
 1118              		@ sp needed
 1119 003c 80BD     		pop	{r7, pc}
 1120              	.L99:
 1121 003e C046     		.align	2
 1122              	.L98:
 1123 0040 0C020B40 		.word	1074463244
 1124 0044 FFFFFFE0 		.word	-520093697
 1125              		.cfi_endproc
 1126              	.LFE16:
 1127              		.size	CySysWdtSetToggleBit, .-CySysWdtSetToggleBit
 1128              		.section	.text.CySysWdtGetToggleBit,"ax",%progbits
 1129              		.align	2
 1130              		.global	CySysWdtGetToggleBit
 1131              		.code	16
 1132              		.thumb_func
 1133              		.type	CySysWdtGetToggleBit, %function
 1134              	CySysWdtGetToggleBit:
ARM GAS  C:\Users\fabis\AppData\Local\Temp\ccvALjuz.s 			page 37


 1135              	.LFB17:
 911:Generated_Source\PSoC4/CyLFClk.c **** 
 912:Generated_Source\PSoC4/CyLFClk.c **** 
 913:Generated_Source\PSoC4/CyLFClk.c ****     /*******************************************************************************
 914:Generated_Source\PSoC4/CyLFClk.c ****     * Function Name: CySysWdtGetToggleBit
 915:Generated_Source\PSoC4/CyLFClk.c ****     ********************************************************************************
 916:Generated_Source\PSoC4/CyLFClk.c ****     *
 917:Generated_Source\PSoC4/CyLFClk.c ****     * Summary:
 918:Generated_Source\PSoC4/CyLFClk.c ****     *  Reads which bit in WDT counter 2 is monitored for a toggle.
 919:Generated_Source\PSoC4/CyLFClk.c ****     *
 920:Generated_Source\PSoC4/CyLFClk.c ****     * Parameters:
 921:Generated_Source\PSoC4/CyLFClk.c ****     *  None.
 922:Generated_Source\PSoC4/CyLFClk.c ****     *
 923:Generated_Source\PSoC4/CyLFClk.c ****     * Return:
 924:Generated_Source\PSoC4/CyLFClk.c ****     *  The bit that is monitored (range of 0 to 31)
 925:Generated_Source\PSoC4/CyLFClk.c ****     *
 926:Generated_Source\PSoC4/CyLFClk.c ****     *******************************************************************************/
 927:Generated_Source\PSoC4/CyLFClk.c ****     uint32 CySysWdtGetToggleBit(void)
 928:Generated_Source\PSoC4/CyLFClk.c ****     {
 1136              		.loc 1 928 0
 1137              		.cfi_startproc
 1138              		@ args = 0, pretend = 0, frame = 0
 1139              		@ frame_needed = 1, uses_anonymous_args = 0
 1140 0000 80B5     		push	{r7, lr}
 1141              		.cfi_def_cfa_offset 8
 1142              		.cfi_offset 7, -8
 1143              		.cfi_offset 14, -4
 1144 0002 00AF     		add	r7, sp, #0
 1145              		.cfi_def_cfa_register 7
 929:Generated_Source\PSoC4/CyLFClk.c ****         return ((CY_SYS_WDT_CONFIG_REG >> CY_SYS_WDT_CONFIG_BITS2_POS) & CY_SYS_WDT_CONFIG_BITS2_MA
 1146              		.loc 1 929 0
 1147 0004 034B     		ldr	r3, .L102
 1148 0006 1B68     		ldr	r3, [r3]
 1149 0008 1B0E     		lsrs	r3, r3, #24
 1150 000a 1F22     		movs	r2, #31
 1151 000c 1340     		ands	r3, r2
 930:Generated_Source\PSoC4/CyLFClk.c ****     }
 1152              		.loc 1 930 0
 1153 000e 1800     		movs	r0, r3
 1154 0010 BD46     		mov	sp, r7
 1155              		@ sp needed
 1156 0012 80BD     		pop	{r7, pc}
 1157              	.L103:
 1158              		.align	2
 1159              	.L102:
 1160 0014 0C020B40 		.word	1074463244
 1161              		.cfi_endproc
 1162              	.LFE17:
 1163              		.size	CySysWdtGetToggleBit, .-CySysWdtGetToggleBit
 1164              		.section	.text.CySysWdtGetMatch,"ax",%progbits
 1165              		.align	2
 1166              		.global	CySysWdtGetMatch
 1167              		.code	16
 1168              		.thumb_func
 1169              		.type	CySysWdtGetMatch, %function
 1170              	CySysWdtGetMatch:
 1171              	.LFB18:
ARM GAS  C:\Users\fabis\AppData\Local\Temp\ccvALjuz.s 			page 38


 931:Generated_Source\PSoC4/CyLFClk.c **** 
 932:Generated_Source\PSoC4/CyLFClk.c **** 
 933:Generated_Source\PSoC4/CyLFClk.c ****     /*******************************************************************************
 934:Generated_Source\PSoC4/CyLFClk.c ****     * Function Name: CySysWdtGetMatch
 935:Generated_Source\PSoC4/CyLFClk.c ****     ********************************************************************************
 936:Generated_Source\PSoC4/CyLFClk.c ****     *
 937:Generated_Source\PSoC4/CyLFClk.c ****     * Summary:
 938:Generated_Source\PSoC4/CyLFClk.c ****     *  Reads the WDT counter match comparison value.
 939:Generated_Source\PSoC4/CyLFClk.c ****     *
 940:Generated_Source\PSoC4/CyLFClk.c ****     * Parameters:
 941:Generated_Source\PSoC4/CyLFClk.c ****     *  counterNum: Valid range [0-1].  The number of the WDT counter.  The match values
 942:Generated_Source\PSoC4/CyLFClk.c ****     *               are not supported by counter 2.
 943:Generated_Source\PSoC4/CyLFClk.c ****     *
 944:Generated_Source\PSoC4/CyLFClk.c ****     * Return:
 945:Generated_Source\PSoC4/CyLFClk.c ****     *  A 16-bit match value.
 946:Generated_Source\PSoC4/CyLFClk.c ****     *
 947:Generated_Source\PSoC4/CyLFClk.c ****     *******************************************************************************/
 948:Generated_Source\PSoC4/CyLFClk.c ****     uint32 CySysWdtGetMatch(uint32 counterNum)
 949:Generated_Source\PSoC4/CyLFClk.c ****     {
 1172              		.loc 1 949 0
 1173              		.cfi_startproc
 1174              		@ args = 0, pretend = 0, frame = 8
 1175              		@ frame_needed = 1, uses_anonymous_args = 0
 1176 0000 80B5     		push	{r7, lr}
 1177              		.cfi_def_cfa_offset 8
 1178              		.cfi_offset 7, -8
 1179              		.cfi_offset 14, -4
 1180 0002 82B0     		sub	sp, sp, #8
 1181              		.cfi_def_cfa_offset 16
 1182 0004 00AF     		add	r7, sp, #0
 1183              		.cfi_def_cfa_register 7
 1184 0006 7860     		str	r0, [r7, #4]
 950:Generated_Source\PSoC4/CyLFClk.c ****         CYASSERT((counterNum == CY_SYS_WDT_COUNTER0) ||
 1185              		.loc 1 950 0
 1186 0008 7B68     		ldr	r3, [r7, #4]
 1187 000a 002B     		cmp	r3, #0
 1188 000c 02D0     		beq	.L105
 1189              		.loc 1 950 0 is_stmt 0 discriminator 2
 1190 000e 7B68     		ldr	r3, [r7, #4]
 1191 0010 012B     		cmp	r3, #1
 1192 0012 01D1     		bne	.L106
 1193              	.L105:
 1194              		.loc 1 950 0 discriminator 3
 1195 0014 0123     		movs	r3, #1
 1196 0016 00E0     		b	.L107
 1197              	.L106:
 1198              		.loc 1 950 0 discriminator 4
 1199 0018 0023     		movs	r3, #0
 1200              	.L107:
 1201              		.loc 1 950 0 discriminator 6
 1202 001a 002B     		cmp	r3, #0
 1203 001c 02D1     		bne	.L108
 1204              		.loc 1 950 0 discriminator 7
 1205 001e 0020     		movs	r0, #0
 1206 0020 FFF7FEFF 		bl	CyHalt
 1207              	.L108:
 951:Generated_Source\PSoC4/CyLFClk.c ****                  (counterNum == CY_SYS_WDT_COUNTER1));
ARM GAS  C:\Users\fabis\AppData\Local\Temp\ccvALjuz.s 			page 39


 952:Generated_Source\PSoC4/CyLFClk.c **** 
 953:Generated_Source\PSoC4/CyLFClk.c ****         return ((uint32)(CY_SYS_WDT_MATCH_REG >> (counterNum * CY_SYS_WDT_CNT_MATCH_SHIFT)) & CY_SY
 1208              		.loc 1 953 0 is_stmt 1
 1209 0024 054B     		ldr	r3, .L110
 1210 0026 1A68     		ldr	r2, [r3]
 1211 0028 7B68     		ldr	r3, [r7, #4]
 1212 002a 1B01     		lsls	r3, r3, #4
 1213 002c DA40     		lsrs	r2, r2, r3
 1214 002e 1300     		movs	r3, r2
 1215 0030 1B04     		lsls	r3, r3, #16
 1216 0032 1B0C     		lsrs	r3, r3, #16
 954:Generated_Source\PSoC4/CyLFClk.c ****     }
 1217              		.loc 1 954 0
 1218 0034 1800     		movs	r0, r3
 1219 0036 BD46     		mov	sp, r7
 1220 0038 02B0     		add	sp, sp, #8
 1221              		@ sp needed
 1222 003a 80BD     		pop	{r7, pc}
 1223              	.L111:
 1224              		.align	2
 1225              	.L110:
 1226 003c 08020B40 		.word	1074463240
 1227              		.cfi_endproc
 1228              	.LFE18:
 1229              		.size	CySysWdtGetMatch, .-CySysWdtGetMatch
 1230              		.section	.text.CySysWdtGetCount,"ax",%progbits
 1231              		.align	2
 1232              		.global	CySysWdtGetCount
 1233              		.code	16
 1234              		.thumb_func
 1235              		.type	CySysWdtGetCount, %function
 1236              	CySysWdtGetCount:
 1237              	.LFB19:
 955:Generated_Source\PSoC4/CyLFClk.c **** 
 956:Generated_Source\PSoC4/CyLFClk.c **** 
 957:Generated_Source\PSoC4/CyLFClk.c ****     /*******************************************************************************
 958:Generated_Source\PSoC4/CyLFClk.c ****     * Function Name: CySysWdtGetCount
 959:Generated_Source\PSoC4/CyLFClk.c ****     ********************************************************************************
 960:Generated_Source\PSoC4/CyLFClk.c ****     *
 961:Generated_Source\PSoC4/CyLFClk.c ****     * Summary:
 962:Generated_Source\PSoC4/CyLFClk.c ****     *  Reads the current WDT counter value.
 963:Generated_Source\PSoC4/CyLFClk.c ****     *
 964:Generated_Source\PSoC4/CyLFClk.c ****     * Parameters:
 965:Generated_Source\PSoC4/CyLFClk.c ****     *  counterNum: Valid range [0-2].  The number of the WDT counter.
 966:Generated_Source\PSoC4/CyLFClk.c ****     *
 967:Generated_Source\PSoC4/CyLFClk.c ****     * Return:
 968:Generated_Source\PSoC4/CyLFClk.c ****     *  A live counter value.  Counter 0 and 1 are 16 bit counters and counter
 969:Generated_Source\PSoC4/CyLFClk.c ****     *  2 is a 32 bit counter.
 970:Generated_Source\PSoC4/CyLFClk.c ****     *
 971:Generated_Source\PSoC4/CyLFClk.c ****     *******************************************************************************/
 972:Generated_Source\PSoC4/CyLFClk.c ****     uint32 CySysWdtGetCount(uint32 counterNum)
 973:Generated_Source\PSoC4/CyLFClk.c ****     {
 1238              		.loc 1 973 0
 1239              		.cfi_startproc
 1240              		@ args = 0, pretend = 0, frame = 16
 1241              		@ frame_needed = 1, uses_anonymous_args = 0
 1242 0000 80B5     		push	{r7, lr}
ARM GAS  C:\Users\fabis\AppData\Local\Temp\ccvALjuz.s 			page 40


 1243              		.cfi_def_cfa_offset 8
 1244              		.cfi_offset 7, -8
 1245              		.cfi_offset 14, -4
 1246 0002 84B0     		sub	sp, sp, #16
 1247              		.cfi_def_cfa_offset 24
 1248 0004 00AF     		add	r7, sp, #0
 1249              		.cfi_def_cfa_register 7
 1250 0006 7860     		str	r0, [r7, #4]
 974:Generated_Source\PSoC4/CyLFClk.c ****         uint32 regValue = 0u;
 1251              		.loc 1 974 0
 1252 0008 0023     		movs	r3, #0
 1253 000a FB60     		str	r3, [r7, #12]
 975:Generated_Source\PSoC4/CyLFClk.c **** 
 976:Generated_Source\PSoC4/CyLFClk.c ****         switch(counterNum)
 1254              		.loc 1 976 0
 1255 000c 7B68     		ldr	r3, [r7, #4]
 1256 000e 012B     		cmp	r3, #1
 1257 0010 09D0     		beq	.L114
 1258 0012 02D3     		bcc	.L115
 1259 0014 022B     		cmp	r3, #2
 1260 0016 0BD0     		beq	.L116
 1261 0018 0EE0     		b	.L119
 1262              	.L115:
 977:Generated_Source\PSoC4/CyLFClk.c ****         {
 978:Generated_Source\PSoC4/CyLFClk.c ****             /* WDT Counter 0 */
 979:Generated_Source\PSoC4/CyLFClk.c ****             case 0u:
 980:Generated_Source\PSoC4/CyLFClk.c ****                 regValue = CY_SYS_WDT_CTRLOW_REG & CY_SYS_WDT_LOWER_16BITS_MASK;
 1263              		.loc 1 980 0
 1264 001a 0C4B     		ldr	r3, .L120
 1265 001c 1B68     		ldr	r3, [r3]
 1266 001e 1B04     		lsls	r3, r3, #16
 1267 0020 1B0C     		lsrs	r3, r3, #16
 1268 0022 FB60     		str	r3, [r7, #12]
 981:Generated_Source\PSoC4/CyLFClk.c ****             break;
 1269              		.loc 1 981 0
 1270 0024 0CE0     		b	.L117
 1271              	.L114:
 982:Generated_Source\PSoC4/CyLFClk.c **** 
 983:Generated_Source\PSoC4/CyLFClk.c ****             /* WDT Counter 1 */
 984:Generated_Source\PSoC4/CyLFClk.c ****             case 1u:
 985:Generated_Source\PSoC4/CyLFClk.c ****                 regValue = (CY_SYS_WDT_CTRLOW_REG >> CY_SYS_WDT_CNT_MATCH_SHIFT) & CY_SYS_WDT_LOWER
 1272              		.loc 1 985 0
 1273 0026 094B     		ldr	r3, .L120
 1274 0028 1B68     		ldr	r3, [r3]
 1275 002a 1B0C     		lsrs	r3, r3, #16
 1276 002c FB60     		str	r3, [r7, #12]
 986:Generated_Source\PSoC4/CyLFClk.c ****             break;
 1277              		.loc 1 986 0
 1278 002e 07E0     		b	.L117
 1279              	.L116:
 987:Generated_Source\PSoC4/CyLFClk.c **** 
 988:Generated_Source\PSoC4/CyLFClk.c ****             /* WDT Counter 2 */
 989:Generated_Source\PSoC4/CyLFClk.c ****             case 2u:
 990:Generated_Source\PSoC4/CyLFClk.c ****                 regValue = CY_SYS_WDT_CTRHIGH_REG;
 1280              		.loc 1 990 0
 1281 0030 074B     		ldr	r3, .L120+4
 1282 0032 1B68     		ldr	r3, [r3]
ARM GAS  C:\Users\fabis\AppData\Local\Temp\ccvALjuz.s 			page 41


 1283 0034 FB60     		str	r3, [r7, #12]
 991:Generated_Source\PSoC4/CyLFClk.c ****             break;
 1284              		.loc 1 991 0
 1285 0036 03E0     		b	.L117
 1286              	.L119:
 992:Generated_Source\PSoC4/CyLFClk.c **** 
 993:Generated_Source\PSoC4/CyLFClk.c ****             default:
 994:Generated_Source\PSoC4/CyLFClk.c ****                 CYASSERT(0u != 0u);
 1287              		.loc 1 994 0
 1288 0038 0020     		movs	r0, #0
 1289 003a FFF7FEFF 		bl	CyHalt
 995:Generated_Source\PSoC4/CyLFClk.c ****             break;
 1290              		.loc 1 995 0
 1291 003e C046     		nop
 1292              	.L117:
 996:Generated_Source\PSoC4/CyLFClk.c ****         }
 997:Generated_Source\PSoC4/CyLFClk.c **** 
 998:Generated_Source\PSoC4/CyLFClk.c ****         return (regValue);
 1293              		.loc 1 998 0
 1294 0040 FB68     		ldr	r3, [r7, #12]
 999:Generated_Source\PSoC4/CyLFClk.c ****     }
 1295              		.loc 1 999 0
 1296 0042 1800     		movs	r0, r3
 1297 0044 BD46     		mov	sp, r7
 1298 0046 04B0     		add	sp, sp, #16
 1299              		@ sp needed
 1300 0048 80BD     		pop	{r7, pc}
 1301              	.L121:
 1302 004a C046     		.align	2
 1303              	.L120:
 1304 004c 00020B40 		.word	1074463232
 1305 0050 04020B40 		.word	1074463236
 1306              		.cfi_endproc
 1307              	.LFE19:
 1308              		.size	CySysWdtGetCount, .-CySysWdtGetCount
 1309              		.section	.text.CySysWdtGetInterruptSource,"ax",%progbits
 1310              		.align	2
 1311              		.global	CySysWdtGetInterruptSource
 1312              		.code	16
 1313              		.thumb_func
 1314              		.type	CySysWdtGetInterruptSource, %function
 1315              	CySysWdtGetInterruptSource:
 1316              	.LFB20:
1000:Generated_Source\PSoC4/CyLFClk.c **** 
1001:Generated_Source\PSoC4/CyLFClk.c **** 
1002:Generated_Source\PSoC4/CyLFClk.c ****     /*******************************************************************************
1003:Generated_Source\PSoC4/CyLFClk.c ****     * Function Name: CySysWdtGetInterruptSource
1004:Generated_Source\PSoC4/CyLFClk.c ****     ********************************************************************************
1005:Generated_Source\PSoC4/CyLFClk.c ****     *
1006:Generated_Source\PSoC4/CyLFClk.c ****     * Summary:
1007:Generated_Source\PSoC4/CyLFClk.c ****     *   Reads a mask containing all the WDT counters interrupts that are currently
1008:Generated_Source\PSoC4/CyLFClk.c ****     *   set by the hardware, if a corresponding mode is selected.
1009:Generated_Source\PSoC4/CyLFClk.c ****     *
1010:Generated_Source\PSoC4/CyLFClk.c ****     * Parameters:
1011:Generated_Source\PSoC4/CyLFClk.c ****     *   None.
1012:Generated_Source\PSoC4/CyLFClk.c ****     *
1013:Generated_Source\PSoC4/CyLFClk.c ****     * Return:
ARM GAS  C:\Users\fabis\AppData\Local\Temp\ccvALjuz.s 			page 42


1014:Generated_Source\PSoC4/CyLFClk.c ****     *   The mask of interrupts set.
1015:Generated_Source\PSoC4/CyLFClk.c ****     *   Define                    Counter
1016:Generated_Source\PSoC4/CyLFClk.c ****     *   CY_SYS_WDT_COUNTER0_INT    0
1017:Generated_Source\PSoC4/CyLFClk.c ****     *   CY_SYS_WDT_COUNTER1_INT    1
1018:Generated_Source\PSoC4/CyLFClk.c ****     *   CY_SYS_WDT_COUNTER2_INT    2
1019:Generated_Source\PSoC4/CyLFClk.c ****     *
1020:Generated_Source\PSoC4/CyLFClk.c ****     *******************************************************************************/
1021:Generated_Source\PSoC4/CyLFClk.c ****     uint32 CySysWdtGetInterruptSource(void)
1022:Generated_Source\PSoC4/CyLFClk.c ****     {
 1317              		.loc 1 1022 0
 1318              		.cfi_startproc
 1319              		@ args = 0, pretend = 0, frame = 0
 1320              		@ frame_needed = 1, uses_anonymous_args = 0
 1321 0000 80B5     		push	{r7, lr}
 1322              		.cfi_def_cfa_offset 8
 1323              		.cfi_offset 7, -8
 1324              		.cfi_offset 14, -4
 1325 0002 00AF     		add	r7, sp, #0
 1326              		.cfi_def_cfa_register 7
1023:Generated_Source\PSoC4/CyLFClk.c ****         return (CY_SYS_WDT_CONTROL_REG & (CY_SYS_WDT_COUNTER0_INT | CY_SYS_WDT_COUNTER1_INT | CY_SY
 1327              		.loc 1 1023 0
 1328 0004 034B     		ldr	r3, .L124
 1329 0006 1B68     		ldr	r3, [r3]
 1330 0008 034A     		ldr	r2, .L124+4
 1331 000a 1340     		ands	r3, r2
1024:Generated_Source\PSoC4/CyLFClk.c ****     }
 1332              		.loc 1 1024 0
 1333 000c 1800     		movs	r0, r3
 1334 000e BD46     		mov	sp, r7
 1335              		@ sp needed
 1336 0010 80BD     		pop	{r7, pc}
 1337              	.L125:
 1338 0012 C046     		.align	2
 1339              	.L124:
 1340 0014 10020B40 		.word	1074463248
 1341 0018 04040400 		.word	263172
 1342              		.cfi_endproc
 1343              	.LFE20:
 1344              		.size	CySysWdtGetInterruptSource, .-CySysWdtGetInterruptSource
 1345              		.section	.text.CySysWdtClearInterrupt,"ax",%progbits
 1346              		.align	2
 1347              		.global	CySysWdtClearInterrupt
 1348              		.code	16
 1349              		.thumb_func
 1350              		.type	CySysWdtClearInterrupt, %function
 1351              	CySysWdtClearInterrupt:
 1352              	.LFB21:
1025:Generated_Source\PSoC4/CyLFClk.c **** 
1026:Generated_Source\PSoC4/CyLFClk.c **** 
1027:Generated_Source\PSoC4/CyLFClk.c ****     /*******************************************************************************
1028:Generated_Source\PSoC4/CyLFClk.c ****     * Function Name: CySysWdtClearInterrupt
1029:Generated_Source\PSoC4/CyLFClk.c ****     ********************************************************************************
1030:Generated_Source\PSoC4/CyLFClk.c ****     *
1031:Generated_Source\PSoC4/CyLFClk.c ****     * Summary:
1032:Generated_Source\PSoC4/CyLFClk.c ****     *   Clears all the WDT counter interrupts set in the mask. Calling this function
1033:Generated_Source\PSoC4/CyLFClk.c ****     *   also prevents from Reset when the counter mode is set to generate
1034:Generated_Source\PSoC4/CyLFClk.c ****     *   3 interrupts and then the device resets.
ARM GAS  C:\Users\fabis\AppData\Local\Temp\ccvALjuz.s 			page 43


1035:Generated_Source\PSoC4/CyLFClk.c ****     *
1036:Generated_Source\PSoC4/CyLFClk.c ****     *   All the WDT interrupts are to be cleared by the firmware, otherwise
1037:Generated_Source\PSoC4/CyLFClk.c ****     *   interrupts are generated continuously.
1038:Generated_Source\PSoC4/CyLFClk.c ****     *
1039:Generated_Source\PSoC4/CyLFClk.c ****     * Parameters:
1040:Generated_Source\PSoC4/CyLFClk.c ****     *   counterMask: The mask of all the counters to enable.
1041:Generated_Source\PSoC4/CyLFClk.c ****     *   Define                    Counter
1042:Generated_Source\PSoC4/CyLFClk.c ****     *   CY_SYS_WDT_COUNTER0_INT    0
1043:Generated_Source\PSoC4/CyLFClk.c ****     *   CY_SYS_WDT_COUNTER1_INT    1
1044:Generated_Source\PSoC4/CyLFClk.c ****     *   CY_SYS_WDT_COUNTER2_INT    2
1045:Generated_Source\PSoC4/CyLFClk.c ****     *
1046:Generated_Source\PSoC4/CyLFClk.c ****     * Return:
1047:Generated_Source\PSoC4/CyLFClk.c ****     *   None
1048:Generated_Source\PSoC4/CyLFClk.c ****     *
1049:Generated_Source\PSoC4/CyLFClk.c ****     * Side effects:
1050:Generated_Source\PSoC4/CyLFClk.c ****     *   This function temporary removes the watchdog lock, if it was set, and
1051:Generated_Source\PSoC4/CyLFClk.c ****     *   restores the lock state after cleaning the WDT interrupts that are set in
1052:Generated_Source\PSoC4/CyLFClk.c ****     *   a mask.
1053:Generated_Source\PSoC4/CyLFClk.c ****     *
1054:Generated_Source\PSoC4/CyLFClk.c ****     *******************************************************************************/
1055:Generated_Source\PSoC4/CyLFClk.c ****     void CySysWdtClearInterrupt(uint32 counterMask)
1056:Generated_Source\PSoC4/CyLFClk.c ****     {
 1353              		.loc 1 1056 0
 1354              		.cfi_startproc
 1355              		@ args = 0, pretend = 0, frame = 16
 1356              		@ frame_needed = 1, uses_anonymous_args = 0
 1357 0000 90B5     		push	{r4, r7, lr}
 1358              		.cfi_def_cfa_offset 12
 1359              		.cfi_offset 4, -12
 1360              		.cfi_offset 7, -8
 1361              		.cfi_offset 14, -4
 1362 0002 85B0     		sub	sp, sp, #20
 1363              		.cfi_def_cfa_offset 32
 1364 0004 00AF     		add	r7, sp, #0
 1365              		.cfi_def_cfa_register 7
 1366 0006 7860     		str	r0, [r7, #4]
1057:Generated_Source\PSoC4/CyLFClk.c ****         uint8 interruptState;
1058:Generated_Source\PSoC4/CyLFClk.c ****         uint32 wdtLockState;
1059:Generated_Source\PSoC4/CyLFClk.c **** 
1060:Generated_Source\PSoC4/CyLFClk.c ****         interruptState = CyEnterCriticalSection();
 1367              		.loc 1 1060 0
 1368 0008 0B23     		movs	r3, #11
 1369 000a FC18     		adds	r4, r7, r3
 1370 000c FFF7FEFF 		bl	CyEnterCriticalSection
 1371 0010 0300     		movs	r3, r0
 1372 0012 2370     		strb	r3, [r4]
1061:Generated_Source\PSoC4/CyLFClk.c **** 
1062:Generated_Source\PSoC4/CyLFClk.c ****         if (0u != CySysWdtLocked())
 1373              		.loc 1 1062 0
 1374 0014 FFF7FEFF 		bl	CySysWdtLocked
 1375 0018 031E     		subs	r3, r0, #0
 1376 001a 04D0     		beq	.L127
1063:Generated_Source\PSoC4/CyLFClk.c ****         {
1064:Generated_Source\PSoC4/CyLFClk.c ****             wdtLockState = 1u;
 1377              		.loc 1 1064 0
 1378 001c 0123     		movs	r3, #1
 1379 001e FB60     		str	r3, [r7, #12]
ARM GAS  C:\Users\fabis\AppData\Local\Temp\ccvALjuz.s 			page 44


1065:Generated_Source\PSoC4/CyLFClk.c ****             CySysWdtUnlock();
 1380              		.loc 1 1065 0
 1381 0020 FFF7FEFF 		bl	CySysWdtUnlock
 1382 0024 01E0     		b	.L128
 1383              	.L127:
1066:Generated_Source\PSoC4/CyLFClk.c ****         }
1067:Generated_Source\PSoC4/CyLFClk.c ****         else
1068:Generated_Source\PSoC4/CyLFClk.c ****         {
1069:Generated_Source\PSoC4/CyLFClk.c ****             wdtLockState = 0u;
 1384              		.loc 1 1069 0
 1385 0026 0023     		movs	r3, #0
 1386 0028 FB60     		str	r3, [r7, #12]
 1387              	.L128:
1070:Generated_Source\PSoC4/CyLFClk.c ****         }
1071:Generated_Source\PSoC4/CyLFClk.c **** 
1072:Generated_Source\PSoC4/CyLFClk.c ****         /* Set new WDT control register value */
1073:Generated_Source\PSoC4/CyLFClk.c ****         counterMask &= (CY_SYS_WDT_COUNTER0_INT |
 1388              		.loc 1 1073 0
 1389 002a 7B68     		ldr	r3, [r7, #4]
 1390 002c 0D4A     		ldr	r2, .L130
 1391 002e 1340     		ands	r3, r2
 1392 0030 7B60     		str	r3, [r7, #4]
1074:Generated_Source\PSoC4/CyLFClk.c ****                         CY_SYS_WDT_COUNTER1_INT |
1075:Generated_Source\PSoC4/CyLFClk.c ****                         CY_SYS_WDT_COUNTER2_INT);
1076:Generated_Source\PSoC4/CyLFClk.c **** 
1077:Generated_Source\PSoC4/CyLFClk.c ****         CY_SYS_WDT_CONTROL_REG = counterMask | (CY_SYS_WDT_CONTROL_REG & ~(CY_SYS_WDT_COUNTER0_INT 
 1393              		.loc 1 1077 0
 1394 0032 0D4B     		ldr	r3, .L130+4
 1395 0034 0C4A     		ldr	r2, .L130+4
 1396 0036 1268     		ldr	r2, [r2]
 1397 0038 0C49     		ldr	r1, .L130+8
 1398 003a 1140     		ands	r1, r2
 1399 003c 7A68     		ldr	r2, [r7, #4]
 1400 003e 0A43     		orrs	r2, r1
 1401 0040 1A60     		str	r2, [r3]
1078:Generated_Source\PSoC4/CyLFClk.c ****                                                                            CY_SYS_WDT_COUNTER1_INT 
1079:Generated_Source\PSoC4/CyLFClk.c ****                                                                            CY_SYS_WDT_COUNTER2_INT)
1080:Generated_Source\PSoC4/CyLFClk.c **** 
1081:Generated_Source\PSoC4/CyLFClk.c ****         /* Read the CY_SYS_WDT_CONTROL_REG to clear the interrupt request.
1082:Generated_Source\PSoC4/CyLFClk.c ****          * Cypress ID #207093, #206231
1083:Generated_Source\PSoC4/CyLFClk.c ****         */
1084:Generated_Source\PSoC4/CyLFClk.c ****         (void)CY_SYS_WDT_CONTROL_REG;
 1402              		.loc 1 1084 0
 1403 0042 094B     		ldr	r3, .L130+4
 1404 0044 1B68     		ldr	r3, [r3]
1085:Generated_Source\PSoC4/CyLFClk.c **** 
1086:Generated_Source\PSoC4/CyLFClk.c ****         if (1u == wdtLockState)
 1405              		.loc 1 1086 0
 1406 0046 FB68     		ldr	r3, [r7, #12]
 1407 0048 012B     		cmp	r3, #1
 1408 004a 01D1     		bne	.L129
1087:Generated_Source\PSoC4/CyLFClk.c ****         {
1088:Generated_Source\PSoC4/CyLFClk.c ****             CySysWdtLock();
 1409              		.loc 1 1088 0
 1410 004c FFF7FEFF 		bl	CySysWdtLock
 1411              	.L129:
1089:Generated_Source\PSoC4/CyLFClk.c ****         }
ARM GAS  C:\Users\fabis\AppData\Local\Temp\ccvALjuz.s 			page 45


1090:Generated_Source\PSoC4/CyLFClk.c **** 
1091:Generated_Source\PSoC4/CyLFClk.c ****         CyExitCriticalSection(interruptState);
 1412              		.loc 1 1091 0
 1413 0050 0B23     		movs	r3, #11
 1414 0052 FB18     		adds	r3, r7, r3
 1415 0054 1B78     		ldrb	r3, [r3]
 1416 0056 1800     		movs	r0, r3
 1417 0058 FFF7FEFF 		bl	CyExitCriticalSection
1092:Generated_Source\PSoC4/CyLFClk.c ****     }
 1418              		.loc 1 1092 0
 1419 005c C046     		nop
 1420 005e BD46     		mov	sp, r7
 1421 0060 05B0     		add	sp, sp, #20
 1422              		@ sp needed
 1423 0062 90BD     		pop	{r4, r7, pc}
 1424              	.L131:
 1425              		.align	2
 1426              	.L130:
 1427 0064 04040400 		.word	263172
 1428 0068 10020B40 		.word	1074463248
 1429 006c FBFBFBFF 		.word	-263173
 1430              		.cfi_endproc
 1431              	.LFE21:
 1432              		.size	CySysWdtClearInterrupt, .-CySysWdtClearInterrupt
 1433              		.section	.text.CySysWdtResetCounters,"ax",%progbits
 1434              		.align	2
 1435              		.global	CySysWdtResetCounters
 1436              		.code	16
 1437              		.thumb_func
 1438              		.type	CySysWdtResetCounters, %function
 1439              	CySysWdtResetCounters:
 1440              	.LFB22:
1093:Generated_Source\PSoC4/CyLFClk.c **** 
1094:Generated_Source\PSoC4/CyLFClk.c **** 
1095:Generated_Source\PSoC4/CyLFClk.c ****     /*******************************************************************************
1096:Generated_Source\PSoC4/CyLFClk.c ****     * Function Name: CySysWdtResetCounters
1097:Generated_Source\PSoC4/CyLFClk.c ****     ********************************************************************************
1098:Generated_Source\PSoC4/CyLFClk.c ****     *
1099:Generated_Source\PSoC4/CyLFClk.c ****     * Summary:
1100:Generated_Source\PSoC4/CyLFClk.c ****     *  Resets all the WDT counters set in the mask.
1101:Generated_Source\PSoC4/CyLFClk.c ****     *
1102:Generated_Source\PSoC4/CyLFClk.c ****     * Parameters:
1103:Generated_Source\PSoC4/CyLFClk.c ****     *  counterMask: The mask of all the counters to reset.
1104:Generated_Source\PSoC4/CyLFClk.c ****     *   Define                       Counter
1105:Generated_Source\PSoC4/CyLFClk.c ****     *   CY_SYS_WDT_COUNTER0_RESET    0
1106:Generated_Source\PSoC4/CyLFClk.c ****     *   CY_SYS_WDT_COUNTER1_RESET    1
1107:Generated_Source\PSoC4/CyLFClk.c ****     *   CY_SYS_WDT_COUNTER2_RESET    2
1108:Generated_Source\PSoC4/CyLFClk.c ****     *
1109:Generated_Source\PSoC4/CyLFClk.c ****     * Return:
1110:Generated_Source\PSoC4/CyLFClk.c ****     *   None
1111:Generated_Source\PSoC4/CyLFClk.c ****     *
1112:Generated_Source\PSoC4/CyLFClk.c ****     * Side effects:
1113:Generated_Source\PSoC4/CyLFClk.c ****     *   This function does not reset counter values if the Watchdog is locked.
1114:Generated_Source\PSoC4/CyLFClk.c ****     *   This function waits while corresponding counters will be reset. This may
1115:Generated_Source\PSoC4/CyLFClk.c ****     *   take up to 3 LFCLK cycles.
1116:Generated_Source\PSoC4/CyLFClk.c ****     *   The LFCLK source must be enabled. Otherwise, the function will never exit.
1117:Generated_Source\PSoC4/CyLFClk.c ****     *
ARM GAS  C:\Users\fabis\AppData\Local\Temp\ccvALjuz.s 			page 46


1118:Generated_Source\PSoC4/CyLFClk.c ****     *******************************************************************************/
1119:Generated_Source\PSoC4/CyLFClk.c ****     void CySysWdtResetCounters(uint32 countersMask)
1120:Generated_Source\PSoC4/CyLFClk.c ****     {
 1441              		.loc 1 1120 0
 1442              		.cfi_startproc
 1443              		@ args = 0, pretend = 0, frame = 8
 1444              		@ frame_needed = 1, uses_anonymous_args = 0
 1445 0000 80B5     		push	{r7, lr}
 1446              		.cfi_def_cfa_offset 8
 1447              		.cfi_offset 7, -8
 1448              		.cfi_offset 14, -4
 1449 0002 82B0     		sub	sp, sp, #8
 1450              		.cfi_def_cfa_offset 16
 1451 0004 00AF     		add	r7, sp, #0
 1452              		.cfi_def_cfa_register 7
 1453 0006 7860     		str	r0, [r7, #4]
1121:Generated_Source\PSoC4/CyLFClk.c ****         /* Set new WDT reset value */
1122:Generated_Source\PSoC4/CyLFClk.c ****         CY_SYS_WDT_CONTROL_REG |= (countersMask & CY_SYS_WDT_COUNTERS_RESET);
 1454              		.loc 1 1122 0
 1455 0008 084B     		ldr	r3, .L134
 1456 000a 084A     		ldr	r2, .L134
 1457 000c 1168     		ldr	r1, [r2]
 1458 000e 7A68     		ldr	r2, [r7, #4]
 1459 0010 0748     		ldr	r0, .L134+4
 1460 0012 0240     		ands	r2, r0
 1461 0014 0A43     		orrs	r2, r1
 1462 0016 1A60     		str	r2, [r3]
1123:Generated_Source\PSoC4/CyLFClk.c **** 
1124:Generated_Source\PSoC4/CyLFClk.c ****         while (0uL != (CY_SYS_WDT_CONTROL_REG & CY_SYS_WDT_COUNTERS_RESET))
 1463              		.loc 1 1124 0
 1464 0018 C046     		nop
 1465              	.L133:
 1466              		.loc 1 1124 0 is_stmt 0 discriminator 1
 1467 001a 044B     		ldr	r3, .L134
 1468 001c 1B68     		ldr	r3, [r3]
 1469 001e 044A     		ldr	r2, .L134+4
 1470 0020 1340     		ands	r3, r2
 1471 0022 FAD1     		bne	.L133
1125:Generated_Source\PSoC4/CyLFClk.c ****         {
1126:Generated_Source\PSoC4/CyLFClk.c ****             /* Wait for reset to come into effect */
1127:Generated_Source\PSoC4/CyLFClk.c ****         }
1128:Generated_Source\PSoC4/CyLFClk.c ****     }
 1472              		.loc 1 1128 0 is_stmt 1
 1473 0024 C046     		nop
 1474 0026 BD46     		mov	sp, r7
 1475 0028 02B0     		add	sp, sp, #8
 1476              		@ sp needed
 1477 002a 80BD     		pop	{r7, pc}
 1478              	.L135:
 1479              		.align	2
 1480              	.L134:
 1481 002c 10020B40 		.word	1074463248
 1482 0030 08080800 		.word	526344
 1483              		.cfi_endproc
 1484              	.LFE22:
 1485              		.size	CySysWdtResetCounters, .-CySysWdtResetCounters
 1486              		.section	.text.CySysWdtSetInterruptCallback,"ax",%progbits
ARM GAS  C:\Users\fabis\AppData\Local\Temp\ccvALjuz.s 			page 47


 1487              		.align	2
 1488              		.global	CySysWdtSetInterruptCallback
 1489              		.code	16
 1490              		.thumb_func
 1491              		.type	CySysWdtSetInterruptCallback, %function
 1492              	CySysWdtSetInterruptCallback:
 1493              	.LFB23:
1129:Generated_Source\PSoC4/CyLFClk.c **** 
1130:Generated_Source\PSoC4/CyLFClk.c **** 
1131:Generated_Source\PSoC4/CyLFClk.c ****     /*******************************************************************************
1132:Generated_Source\PSoC4/CyLFClk.c ****     * Function Name: CySysWdtSetInterruptCallback
1133:Generated_Source\PSoC4/CyLFClk.c ****     ********************************************************************************
1134:Generated_Source\PSoC4/CyLFClk.c ****     *
1135:Generated_Source\PSoC4/CyLFClk.c ****     * Summary:
1136:Generated_Source\PSoC4/CyLFClk.c ****     *  Sets the ISR callback function for the particular WDT counter.
1137:Generated_Source\PSoC4/CyLFClk.c ****     *  These functions are called on the WDT interrupt.
1138:Generated_Source\PSoC4/CyLFClk.c ****     *
1139:Generated_Source\PSoC4/CyLFClk.c ****     * Parameters:
1140:Generated_Source\PSoC4/CyLFClk.c ****     *  counterNum : The number of the WDT counter.
1141:Generated_Source\PSoC4/CyLFClk.c ****     *  function   : The pointer to the callback function.
1142:Generated_Source\PSoC4/CyLFClk.c ****     *
1143:Generated_Source\PSoC4/CyLFClk.c ****     * Return:
1144:Generated_Source\PSoC4/CyLFClk.c ****     *  The pointer to the previous callback function.
1145:Generated_Source\PSoC4/CyLFClk.c ****     *  NULL is returned if the specified address is not set.
1146:Generated_Source\PSoC4/CyLFClk.c ****     *
1147:Generated_Source\PSoC4/CyLFClk.c ****     *******************************************************************************/
1148:Generated_Source\PSoC4/CyLFClk.c ****     cyWdtCallback CySysWdtSetInterruptCallback(uint32 counterNum, cyWdtCallback function)
1149:Generated_Source\PSoC4/CyLFClk.c ****     {
 1494              		.loc 1 1149 0
 1495              		.cfi_startproc
 1496              		@ args = 0, pretend = 0, frame = 16
 1497              		@ frame_needed = 1, uses_anonymous_args = 0
 1498 0000 80B5     		push	{r7, lr}
 1499              		.cfi_def_cfa_offset 8
 1500              		.cfi_offset 7, -8
 1501              		.cfi_offset 14, -4
 1502 0002 84B0     		sub	sp, sp, #16
 1503              		.cfi_def_cfa_offset 24
 1504 0004 00AF     		add	r7, sp, #0
 1505              		.cfi_def_cfa_register 7
 1506 0006 7860     		str	r0, [r7, #4]
 1507 0008 3960     		str	r1, [r7]
1150:Generated_Source\PSoC4/CyLFClk.c ****         cyWdtCallback prevCallback = (void *)0;
 1508              		.loc 1 1150 0
 1509 000a 0023     		movs	r3, #0
 1510 000c FB60     		str	r3, [r7, #12]
1151:Generated_Source\PSoC4/CyLFClk.c **** 
1152:Generated_Source\PSoC4/CyLFClk.c ****         if(counterNum < CY_WDT_NUM_OF_WDT)
 1511              		.loc 1 1152 0
 1512 000e 7B68     		ldr	r3, [r7, #4]
 1513 0010 022B     		cmp	r3, #2
 1514 0012 0AD8     		bhi	.L137
1153:Generated_Source\PSoC4/CyLFClk.c ****         {
1154:Generated_Source\PSoC4/CyLFClk.c ****             prevCallback = cySysWdtCallback[counterNum];
 1515              		.loc 1 1154 0
 1516 0014 094B     		ldr	r3, .L140
 1517 0016 7A68     		ldr	r2, [r7, #4]
ARM GAS  C:\Users\fabis\AppData\Local\Temp\ccvALjuz.s 			page 48


 1518 0018 9200     		lsls	r2, r2, #2
 1519 001a D358     		ldr	r3, [r2, r3]
 1520 001c FB60     		str	r3, [r7, #12]
1155:Generated_Source\PSoC4/CyLFClk.c ****             cySysWdtCallback[counterNum] = function;
 1521              		.loc 1 1155 0
 1522 001e 074B     		ldr	r3, .L140
 1523 0020 7A68     		ldr	r2, [r7, #4]
 1524 0022 9200     		lsls	r2, r2, #2
 1525 0024 3968     		ldr	r1, [r7]
 1526 0026 D150     		str	r1, [r2, r3]
 1527 0028 02E0     		b	.L138
 1528              	.L137:
1156:Generated_Source\PSoC4/CyLFClk.c ****         }
1157:Generated_Source\PSoC4/CyLFClk.c ****         else
1158:Generated_Source\PSoC4/CyLFClk.c ****         {
1159:Generated_Source\PSoC4/CyLFClk.c ****             CYASSERT(0u != 0u);
 1529              		.loc 1 1159 0 discriminator 1
 1530 002a 0020     		movs	r0, #0
 1531 002c FFF7FEFF 		bl	CyHalt
 1532              	.L138:
1160:Generated_Source\PSoC4/CyLFClk.c ****         }
1161:Generated_Source\PSoC4/CyLFClk.c **** 
1162:Generated_Source\PSoC4/CyLFClk.c ****         return((cyWdtCallback)prevCallback);
 1533              		.loc 1 1162 0
 1534 0030 FB68     		ldr	r3, [r7, #12]
1163:Generated_Source\PSoC4/CyLFClk.c ****     }
 1535              		.loc 1 1163 0
 1536 0032 1800     		movs	r0, r3
 1537 0034 BD46     		mov	sp, r7
 1538 0036 04B0     		add	sp, sp, #16
 1539              		@ sp needed
 1540 0038 80BD     		pop	{r7, pc}
 1541              	.L141:
 1542 003a C046     		.align	2
 1543              	.L140:
 1544 003c 0C000000 		.word	cySysWdtCallback
 1545              		.cfi_endproc
 1546              	.LFE23:
 1547              		.size	CySysWdtSetInterruptCallback, .-CySysWdtSetInterruptCallback
 1548              		.section	.text.CySysWdtGetInterruptCallback,"ax",%progbits
 1549              		.align	2
 1550              		.global	CySysWdtGetInterruptCallback
 1551              		.code	16
 1552              		.thumb_func
 1553              		.type	CySysWdtGetInterruptCallback, %function
 1554              	CySysWdtGetInterruptCallback:
 1555              	.LFB24:
1164:Generated_Source\PSoC4/CyLFClk.c **** 
1165:Generated_Source\PSoC4/CyLFClk.c **** 
1166:Generated_Source\PSoC4/CyLFClk.c ****     /*******************************************************************************
1167:Generated_Source\PSoC4/CyLFClk.c ****     * Function Name: CySysWdtGetInterruptCallback
1168:Generated_Source\PSoC4/CyLFClk.c ****     ********************************************************************************
1169:Generated_Source\PSoC4/CyLFClk.c ****     *
1170:Generated_Source\PSoC4/CyLFClk.c ****     * Summary:
1171:Generated_Source\PSoC4/CyLFClk.c ****     *  Gets the ISR callback function for the particular WDT counter.
1172:Generated_Source\PSoC4/CyLFClk.c ****     *
1173:Generated_Source\PSoC4/CyLFClk.c ****     * Parameters:
ARM GAS  C:\Users\fabis\AppData\Local\Temp\ccvALjuz.s 			page 49


1174:Generated_Source\PSoC4/CyLFClk.c ****     *  counterNum : The number of the WDT counter.
1175:Generated_Source\PSoC4/CyLFClk.c ****     *
1176:Generated_Source\PSoC4/CyLFClk.c ****     * Return:
1177:Generated_Source\PSoC4/CyLFClk.c ****     *  The pointer to the callback function registered for a particular WDT by
1178:Generated_Source\PSoC4/CyLFClk.c ****     *  a particular address that are passed through arguments.
1179:Generated_Source\PSoC4/CyLFClk.c ****     *
1180:Generated_Source\PSoC4/CyLFClk.c ****     *******************************************************************************/
1181:Generated_Source\PSoC4/CyLFClk.c ****     cyWdtCallback CySysWdtGetInterruptCallback(uint32 counterNum)
1182:Generated_Source\PSoC4/CyLFClk.c ****     {
 1556              		.loc 1 1182 0
 1557              		.cfi_startproc
 1558              		@ args = 0, pretend = 0, frame = 16
 1559              		@ frame_needed = 1, uses_anonymous_args = 0
 1560 0000 80B5     		push	{r7, lr}
 1561              		.cfi_def_cfa_offset 8
 1562              		.cfi_offset 7, -8
 1563              		.cfi_offset 14, -4
 1564 0002 84B0     		sub	sp, sp, #16
 1565              		.cfi_def_cfa_offset 24
 1566 0004 00AF     		add	r7, sp, #0
 1567              		.cfi_def_cfa_register 7
 1568 0006 7860     		str	r0, [r7, #4]
1183:Generated_Source\PSoC4/CyLFClk.c ****         cyWdtCallback retCallback = (void *)0;
 1569              		.loc 1 1183 0
 1570 0008 0023     		movs	r3, #0
 1571 000a FB60     		str	r3, [r7, #12]
1184:Generated_Source\PSoC4/CyLFClk.c **** 
1185:Generated_Source\PSoC4/CyLFClk.c ****         if(counterNum < CY_WDT_NUM_OF_WDT)
 1572              		.loc 1 1185 0
 1573 000c 7B68     		ldr	r3, [r7, #4]
 1574 000e 022B     		cmp	r3, #2
 1575 0010 05D8     		bhi	.L143
1186:Generated_Source\PSoC4/CyLFClk.c ****         {
1187:Generated_Source\PSoC4/CyLFClk.c ****             retCallback = (cyWdtCallback)cySysWdtCallback[counterNum];
 1576              		.loc 1 1187 0
 1577 0012 074B     		ldr	r3, .L146
 1578 0014 7A68     		ldr	r2, [r7, #4]
 1579 0016 9200     		lsls	r2, r2, #2
 1580 0018 D358     		ldr	r3, [r2, r3]
 1581 001a FB60     		str	r3, [r7, #12]
 1582 001c 02E0     		b	.L144
 1583              	.L143:
1188:Generated_Source\PSoC4/CyLFClk.c ****         }
1189:Generated_Source\PSoC4/CyLFClk.c ****         else
1190:Generated_Source\PSoC4/CyLFClk.c ****         {
1191:Generated_Source\PSoC4/CyLFClk.c ****             CYASSERT(0u != 0u);
 1584              		.loc 1 1191 0 discriminator 1
 1585 001e 0020     		movs	r0, #0
 1586 0020 FFF7FEFF 		bl	CyHalt
 1587              	.L144:
1192:Generated_Source\PSoC4/CyLFClk.c ****         }
1193:Generated_Source\PSoC4/CyLFClk.c **** 
1194:Generated_Source\PSoC4/CyLFClk.c ****         return(retCallback);
 1588              		.loc 1 1194 0
 1589 0024 FB68     		ldr	r3, [r7, #12]
1195:Generated_Source\PSoC4/CyLFClk.c ****     }
 1590              		.loc 1 1195 0
ARM GAS  C:\Users\fabis\AppData\Local\Temp\ccvALjuz.s 			page 50


 1591 0026 1800     		movs	r0, r3
 1592 0028 BD46     		mov	sp, r7
 1593 002a 04B0     		add	sp, sp, #16
 1594              		@ sp needed
 1595 002c 80BD     		pop	{r7, pc}
 1596              	.L147:
 1597 002e C046     		.align	2
 1598              	.L146:
 1599 0030 0C000000 		.word	cySysWdtCallback
 1600              		.cfi_endproc
 1601              	.LFE24:
 1602              		.size	CySysWdtGetInterruptCallback, .-CySysWdtGetInterruptCallback
 1603              		.section	.text.CySysWdtEnableCounterIsr,"ax",%progbits
 1604              		.align	2
 1605              		.global	CySysWdtEnableCounterIsr
 1606              		.code	16
 1607              		.thumb_func
 1608              		.type	CySysWdtEnableCounterIsr, %function
 1609              	CySysWdtEnableCounterIsr:
 1610              	.LFB25:
1196:Generated_Source\PSoC4/CyLFClk.c **** 
1197:Generated_Source\PSoC4/CyLFClk.c **** 
1198:Generated_Source\PSoC4/CyLFClk.c ****     /*******************************************************************************
1199:Generated_Source\PSoC4/CyLFClk.c ****     * Function Name: CySysWdtEnableCounterIsr
1200:Generated_Source\PSoC4/CyLFClk.c ****     ********************************************************************************
1201:Generated_Source\PSoC4/CyLFClk.c ****     *
1202:Generated_Source\PSoC4/CyLFClk.c ****     * Summary:
1203:Generated_Source\PSoC4/CyLFClk.c ****     *  Enables the ISR callback servicing for the particular WDT counter
1204:Generated_Source\PSoC4/CyLFClk.c ****     *
1205:Generated_Source\PSoC4/CyLFClk.c ****     * Parameters:
1206:Generated_Source\PSoC4/CyLFClk.c ****     *  counterNum: Valid range [0-2].  The number of the WDT counter.
1207:Generated_Source\PSoC4/CyLFClk.c ****     *
1208:Generated_Source\PSoC4/CyLFClk.c ****     *******************************************************************************/
1209:Generated_Source\PSoC4/CyLFClk.c ****     void CySysWdtEnableCounterIsr(uint32 counterNum)
1210:Generated_Source\PSoC4/CyLFClk.c ****     {
 1611              		.loc 1 1210 0
 1612              		.cfi_startproc
 1613              		@ args = 0, pretend = 0, frame = 8
 1614              		@ frame_needed = 1, uses_anonymous_args = 0
 1615 0000 80B5     		push	{r7, lr}
 1616              		.cfi_def_cfa_offset 8
 1617              		.cfi_offset 7, -8
 1618              		.cfi_offset 14, -4
 1619 0002 82B0     		sub	sp, sp, #8
 1620              		.cfi_def_cfa_offset 16
 1621 0004 00AF     		add	r7, sp, #0
 1622              		.cfi_def_cfa_register 7
 1623 0006 7860     		str	r0, [r7, #4]
1211:Generated_Source\PSoC4/CyLFClk.c ****         if(counterNum <= CY_SYS_WDT_COUNTER2)
 1624              		.loc 1 1211 0
 1625 0008 7B68     		ldr	r3, [r7, #4]
 1626 000a 022B     		cmp	r3, #2
 1627 000c 13D8     		bhi	.L149
1212:Generated_Source\PSoC4/CyLFClk.c ****         {
1213:Generated_Source\PSoC4/CyLFClk.c ****             disableServicedIsr &= ~counterIntMaskTbl[counterNum];
 1628              		.loc 1 1213 0
 1629 000e 0D4B     		ldr	r3, .L152
ARM GAS  C:\Users\fabis\AppData\Local\Temp\ccvALjuz.s 			page 51


 1630 0010 7A68     		ldr	r2, [r7, #4]
 1631 0012 9200     		lsls	r2, r2, #2
 1632 0014 D358     		ldr	r3, [r2, r3]
 1633 0016 DA43     		mvns	r2, r3
 1634 0018 0B4B     		ldr	r3, .L152+4
 1635 001a 1B68     		ldr	r3, [r3]
 1636 001c 1A40     		ands	r2, r3
 1637 001e 0A4B     		ldr	r3, .L152+4
 1638 0020 1A60     		str	r2, [r3]
1214:Generated_Source\PSoC4/CyLFClk.c ****             wdtIsrMask |= counterIntMaskTbl[counterNum];
 1639              		.loc 1 1214 0
 1640 0022 084B     		ldr	r3, .L152
 1641 0024 7A68     		ldr	r2, [r7, #4]
 1642 0026 9200     		lsls	r2, r2, #2
 1643 0028 D258     		ldr	r2, [r2, r3]
 1644 002a 084B     		ldr	r3, .L152+8
 1645 002c 1B68     		ldr	r3, [r3]
 1646 002e 1A43     		orrs	r2, r3
 1647 0030 064B     		ldr	r3, .L152+8
 1648 0032 1A60     		str	r2, [r3]
1215:Generated_Source\PSoC4/CyLFClk.c ****         }
1216:Generated_Source\PSoC4/CyLFClk.c ****         else
1217:Generated_Source\PSoC4/CyLFClk.c ****         {
1218:Generated_Source\PSoC4/CyLFClk.c ****             CYASSERT(0u != 0u);
1219:Generated_Source\PSoC4/CyLFClk.c ****         }
1220:Generated_Source\PSoC4/CyLFClk.c ****     }
 1649              		.loc 1 1220 0
 1650 0034 02E0     		b	.L151
 1651              	.L149:
1218:Generated_Source\PSoC4/CyLFClk.c ****         }
 1652              		.loc 1 1218 0 discriminator 1
 1653 0036 0020     		movs	r0, #0
 1654 0038 FFF7FEFF 		bl	CyHalt
 1655              	.L151:
 1656              		.loc 1 1220 0
 1657 003c C046     		nop
 1658 003e BD46     		mov	sp, r7
 1659 0040 02B0     		add	sp, sp, #8
 1660              		@ sp needed
 1661 0042 80BD     		pop	{r7, pc}
 1662              	.L153:
 1663              		.align	2
 1664              	.L152:
 1665 0044 00000000 		.word	counterIntMaskTbl
 1666 0048 08000000 		.word	disableServicedIsr
 1667 004c 00000000 		.word	wdtIsrMask
 1668              		.cfi_endproc
 1669              	.LFE25:
 1670              		.size	CySysWdtEnableCounterIsr, .-CySysWdtEnableCounterIsr
 1671              		.section	.text.CySysWdtDisableCounterIsr,"ax",%progbits
 1672              		.align	2
 1673              		.global	CySysWdtDisableCounterIsr
 1674              		.code	16
 1675              		.thumb_func
 1676              		.type	CySysWdtDisableCounterIsr, %function
 1677              	CySysWdtDisableCounterIsr:
 1678              	.LFB26:
ARM GAS  C:\Users\fabis\AppData\Local\Temp\ccvALjuz.s 			page 52


1221:Generated_Source\PSoC4/CyLFClk.c **** 
1222:Generated_Source\PSoC4/CyLFClk.c **** 
1223:Generated_Source\PSoC4/CyLFClk.c ****     /*******************************************************************************
1224:Generated_Source\PSoC4/CyLFClk.c ****     * Function Name: CySysWdtDisableCounterIsr
1225:Generated_Source\PSoC4/CyLFClk.c ****     ********************************************************************************
1226:Generated_Source\PSoC4/CyLFClk.c ****     *
1227:Generated_Source\PSoC4/CyLFClk.c ****     * Summary:
1228:Generated_Source\PSoC4/CyLFClk.c ****     *  Disables the ISR callback servicing for the particular WDT counter
1229:Generated_Source\PSoC4/CyLFClk.c ****     *
1230:Generated_Source\PSoC4/CyLFClk.c ****     * Parameters:
1231:Generated_Source\PSoC4/CyLFClk.c ****     *  counterNum: Valid range [0-2].  The number of the WDT counter.
1232:Generated_Source\PSoC4/CyLFClk.c ****     *
1233:Generated_Source\PSoC4/CyLFClk.c ****     *******************************************************************************/
1234:Generated_Source\PSoC4/CyLFClk.c ****     void CySysWdtDisableCounterIsr(uint32 counterNum)
1235:Generated_Source\PSoC4/CyLFClk.c ****     {
 1679              		.loc 1 1235 0
 1680              		.cfi_startproc
 1681              		@ args = 0, pretend = 0, frame = 8
 1682              		@ frame_needed = 1, uses_anonymous_args = 0
 1683 0000 80B5     		push	{r7, lr}
 1684              		.cfi_def_cfa_offset 8
 1685              		.cfi_offset 7, -8
 1686              		.cfi_offset 14, -4
 1687 0002 82B0     		sub	sp, sp, #8
 1688              		.cfi_def_cfa_offset 16
 1689 0004 00AF     		add	r7, sp, #0
 1690              		.cfi_def_cfa_register 7
 1691 0006 7860     		str	r0, [r7, #4]
1236:Generated_Source\PSoC4/CyLFClk.c ****         if(counterNum <= CY_SYS_WDT_COUNTER2)
 1692              		.loc 1 1236 0
 1693 0008 7B68     		ldr	r3, [r7, #4]
 1694 000a 022B     		cmp	r3, #2
 1695 000c 0AD8     		bhi	.L155
1237:Generated_Source\PSoC4/CyLFClk.c ****         {
1238:Generated_Source\PSoC4/CyLFClk.c ****             wdtIsrMask &= ~counterIntMaskTbl[counterNum];
 1696              		.loc 1 1238 0
 1697 000e 094B     		ldr	r3, .L158
 1698 0010 7A68     		ldr	r2, [r7, #4]
 1699 0012 9200     		lsls	r2, r2, #2
 1700 0014 D358     		ldr	r3, [r2, r3]
 1701 0016 DA43     		mvns	r2, r3
 1702 0018 074B     		ldr	r3, .L158+4
 1703 001a 1B68     		ldr	r3, [r3]
 1704 001c 1A40     		ands	r2, r3
 1705 001e 064B     		ldr	r3, .L158+4
 1706 0020 1A60     		str	r2, [r3]
1239:Generated_Source\PSoC4/CyLFClk.c ****         }
1240:Generated_Source\PSoC4/CyLFClk.c ****         else
1241:Generated_Source\PSoC4/CyLFClk.c ****         {
1242:Generated_Source\PSoC4/CyLFClk.c ****             CYASSERT(0u != 0u);
1243:Generated_Source\PSoC4/CyLFClk.c ****         }
1244:Generated_Source\PSoC4/CyLFClk.c ****     }
 1707              		.loc 1 1244 0
 1708 0022 02E0     		b	.L157
 1709              	.L155:
1242:Generated_Source\PSoC4/CyLFClk.c ****         }
 1710              		.loc 1 1242 0 discriminator 1
ARM GAS  C:\Users\fabis\AppData\Local\Temp\ccvALjuz.s 			page 53


 1711 0024 0020     		movs	r0, #0
 1712 0026 FFF7FEFF 		bl	CyHalt
 1713              	.L157:
 1714              		.loc 1 1244 0
 1715 002a C046     		nop
 1716 002c BD46     		mov	sp, r7
 1717 002e 02B0     		add	sp, sp, #8
 1718              		@ sp needed
 1719 0030 80BD     		pop	{r7, pc}
 1720              	.L159:
 1721 0032 C046     		.align	2
 1722              	.L158:
 1723 0034 00000000 		.word	counterIntMaskTbl
 1724 0038 00000000 		.word	wdtIsrMask
 1725              		.cfi_endproc
 1726              	.LFE26:
 1727              		.size	CySysWdtDisableCounterIsr, .-CySysWdtDisableCounterIsr
 1728              		.section	.text.CySysWdtIsr,"ax",%progbits
 1729              		.align	2
 1730              		.global	CySysWdtIsr
 1731              		.code	16
 1732              		.thumb_func
 1733              		.type	CySysWdtIsr, %function
 1734              	CySysWdtIsr:
 1735              	.LFB27:
1245:Generated_Source\PSoC4/CyLFClk.c **** 
1246:Generated_Source\PSoC4/CyLFClk.c **** 
1247:Generated_Source\PSoC4/CyLFClk.c ****     /*******************************************************************************
1248:Generated_Source\PSoC4/CyLFClk.c ****     * Function Name: CySysWdtIsr
1249:Generated_Source\PSoC4/CyLFClk.c ****     ********************************************************************************
1250:Generated_Source\PSoC4/CyLFClk.c ****     *
1251:Generated_Source\PSoC4/CyLFClk.c ****     * Summary:
1252:Generated_Source\PSoC4/CyLFClk.c ****     *  This is the handler of the WDT interrupt in CPU NVIC. The handler checks
1253:Generated_Source\PSoC4/CyLFClk.c ****     *  which WDT triggered in the interrupt and calls the respective callback
1254:Generated_Source\PSoC4/CyLFClk.c ****     *  functions configured by the user by using CySysWdtSetIsrCallback() API.
1255:Generated_Source\PSoC4/CyLFClk.c ****     *
1256:Generated_Source\PSoC4/CyLFClk.c ****     *  The order of the callback execution is incremental. Callback-0 is
1257:Generated_Source\PSoC4/CyLFClk.c ****     *  run as the first one and callback-2 is called as the last one.
1258:Generated_Source\PSoC4/CyLFClk.c ****     *
1259:Generated_Source\PSoC4/CyLFClk.c ****     * Parameters:
1260:Generated_Source\PSoC4/CyLFClk.c ****     *  None.
1261:Generated_Source\PSoC4/CyLFClk.c ****     *
1262:Generated_Source\PSoC4/CyLFClk.c ****     * Return:
1263:Generated_Source\PSoC4/CyLFClk.c ****     *  None.
1264:Generated_Source\PSoC4/CyLFClk.c ****     *
1265:Generated_Source\PSoC4/CyLFClk.c ****     * Side Effects:
1266:Generated_Source\PSoC4/CyLFClk.c ****     *  This function clears the WDT interrupt every time when it is called.
1267:Generated_Source\PSoC4/CyLFClk.c ****     *  Reset after the 3rd interrupt does not happen if this function is registered
1268:Generated_Source\PSoC4/CyLFClk.c ****     *  as the interrupt handler even if the "Watchdog with Interrupt" mode is
1269:Generated_Source\PSoC4/CyLFClk.c ****     *  selected on the "Low Frequency Clocks" tab.
1270:Generated_Source\PSoC4/CyLFClk.c ****     *
1271:Generated_Source\PSoC4/CyLFClk.c ****     *******************************************************************************/
1272:Generated_Source\PSoC4/CyLFClk.c ****     void CySysWdtIsr(void)
1273:Generated_Source\PSoC4/CyLFClk.c ****     {
 1736              		.loc 1 1273 0
 1737              		.cfi_startproc
 1738              		@ args = 0, pretend = 0, frame = 0
ARM GAS  C:\Users\fabis\AppData\Local\Temp\ccvALjuz.s 			page 54


 1739              		@ frame_needed = 1, uses_anonymous_args = 0
 1740 0000 80B5     		push	{r7, lr}
 1741              		.cfi_def_cfa_offset 8
 1742              		.cfi_offset 7, -8
 1743              		.cfi_offset 14, -4
 1744 0002 00AF     		add	r7, sp, #0
 1745              		.cfi_def_cfa_register 7
1274:Generated_Source\PSoC4/CyLFClk.c ****         if(0u != (CY_SYS_WDT_COUNTER0_INT & CY_SYS_WDT_CONTROL_REG))
 1746              		.loc 1 1274 0
 1747 0004 344B     		ldr	r3, .L168
 1748 0006 1B68     		ldr	r3, [r3]
 1749 0008 0422     		movs	r2, #4
 1750 000a 1340     		ands	r3, r2
 1751 000c 1FD0     		beq	.L161
1275:Generated_Source\PSoC4/CyLFClk.c ****         {
1276:Generated_Source\PSoC4/CyLFClk.c ****             if(0u != (CY_SYS_WDT_COUNTER0_INT & wdtIsrMask))
 1752              		.loc 1 1276 0
 1753 000e 334B     		ldr	r3, .L168+4
 1754 0010 1B68     		ldr	r3, [r3]
 1755 0012 0422     		movs	r2, #4
 1756 0014 1340     		ands	r3, r2
 1757 0016 17D0     		beq	.L162
1277:Generated_Source\PSoC4/CyLFClk.c ****             {
1278:Generated_Source\PSoC4/CyLFClk.c ****                 wdtIsrMask &= ~(disableServicedIsr & CY_SYS_WDT_COUNTER0_INT);
 1758              		.loc 1 1278 0
 1759 0018 314B     		ldr	r3, .L168+8
 1760 001a 1B68     		ldr	r3, [r3]
 1761 001c 0422     		movs	r2, #4
 1762 001e 1340     		ands	r3, r2
 1763 0020 DA43     		mvns	r2, r3
 1764 0022 2E4B     		ldr	r3, .L168+4
 1765 0024 1B68     		ldr	r3, [r3]
 1766 0026 1A40     		ands	r2, r3
 1767 0028 2C4B     		ldr	r3, .L168+4
 1768 002a 1A60     		str	r2, [r3]
1279:Generated_Source\PSoC4/CyLFClk.c ****                 disableServicedIsr  &= ~CY_SYS_WDT_COUNTER0_INT;
 1769              		.loc 1 1279 0
 1770 002c 2C4B     		ldr	r3, .L168+8
 1771 002e 1B68     		ldr	r3, [r3]
 1772 0030 0422     		movs	r2, #4
 1773 0032 9343     		bics	r3, r2
 1774 0034 1A00     		movs	r2, r3
 1775 0036 2A4B     		ldr	r3, .L168+8
 1776 0038 1A60     		str	r2, [r3]
1280:Generated_Source\PSoC4/CyLFClk.c ****                 if(cySysWdtCallback[CY_SYS_WDT_COUNTER0] != (void *) 0)
 1777              		.loc 1 1280 0
 1778 003a 2A4B     		ldr	r3, .L168+12
 1779 003c 1B68     		ldr	r3, [r3]
 1780 003e 002B     		cmp	r3, #0
 1781 0040 02D0     		beq	.L162
1281:Generated_Source\PSoC4/CyLFClk.c ****                 {
1282:Generated_Source\PSoC4/CyLFClk.c ****                     (void)(cySysWdtCallback[CY_SYS_WDT_COUNTER0])();
 1782              		.loc 1 1282 0
 1783 0042 284B     		ldr	r3, .L168+12
 1784 0044 1B68     		ldr	r3, [r3]
 1785 0046 9847     		blx	r3
 1786              	.L162:
ARM GAS  C:\Users\fabis\AppData\Local\Temp\ccvALjuz.s 			page 55


1283:Generated_Source\PSoC4/CyLFClk.c ****                 }
1284:Generated_Source\PSoC4/CyLFClk.c ****             }
1285:Generated_Source\PSoC4/CyLFClk.c ****             CySysWdtClearInterrupt(CY_SYS_WDT_COUNTER0_INT);
 1787              		.loc 1 1285 0
 1788 0048 0420     		movs	r0, #4
 1789 004a FFF7FEFF 		bl	CySysWdtClearInterrupt
 1790              	.L161:
1286:Generated_Source\PSoC4/CyLFClk.c ****         }
1287:Generated_Source\PSoC4/CyLFClk.c **** 
1288:Generated_Source\PSoC4/CyLFClk.c ****         if(0u != (CY_SYS_WDT_COUNTER1_INT & CY_SYS_WDT_CONTROL_REG))
 1791              		.loc 1 1288 0
 1792 004e 224B     		ldr	r3, .L168
 1793 0050 1A68     		ldr	r2, [r3]
 1794 0052 8023     		movs	r3, #128
 1795 0054 DB00     		lsls	r3, r3, #3
 1796 0056 1340     		ands	r3, r2
 1797 0058 22D0     		beq	.L163
1289:Generated_Source\PSoC4/CyLFClk.c ****         {
1290:Generated_Source\PSoC4/CyLFClk.c ****             if(0u != (CY_SYS_WDT_COUNTER1_INT & wdtIsrMask))
 1798              		.loc 1 1290 0
 1799 005a 204B     		ldr	r3, .L168+4
 1800 005c 1A68     		ldr	r2, [r3]
 1801 005e 8023     		movs	r3, #128
 1802 0060 DB00     		lsls	r3, r3, #3
 1803 0062 1340     		ands	r3, r2
 1804 0064 17D0     		beq	.L164
1291:Generated_Source\PSoC4/CyLFClk.c ****             {
1292:Generated_Source\PSoC4/CyLFClk.c ****                 wdtIsrMask &= ~(disableServicedIsr & CY_SYS_WDT_COUNTER1_INT);
 1805              		.loc 1 1292 0
 1806 0066 1E4B     		ldr	r3, .L168+8
 1807 0068 1A68     		ldr	r2, [r3]
 1808 006a 8023     		movs	r3, #128
 1809 006c DB00     		lsls	r3, r3, #3
 1810 006e 1340     		ands	r3, r2
 1811 0070 DA43     		mvns	r2, r3
 1812 0072 1A4B     		ldr	r3, .L168+4
 1813 0074 1B68     		ldr	r3, [r3]
 1814 0076 1A40     		ands	r2, r3
 1815 0078 184B     		ldr	r3, .L168+4
 1816 007a 1A60     		str	r2, [r3]
1293:Generated_Source\PSoC4/CyLFClk.c ****                 disableServicedIsr  &= ~CY_SYS_WDT_COUNTER1_INT;
 1817              		.loc 1 1293 0
 1818 007c 184B     		ldr	r3, .L168+8
 1819 007e 1B68     		ldr	r3, [r3]
 1820 0080 194A     		ldr	r2, .L168+16
 1821 0082 1A40     		ands	r2, r3
 1822 0084 164B     		ldr	r3, .L168+8
 1823 0086 1A60     		str	r2, [r3]
1294:Generated_Source\PSoC4/CyLFClk.c ****                 if(cySysWdtCallback[CY_SYS_WDT_COUNTER1] != (void *) 0)
 1824              		.loc 1 1294 0
 1825 0088 164B     		ldr	r3, .L168+12
 1826 008a 5B68     		ldr	r3, [r3, #4]
 1827 008c 002B     		cmp	r3, #0
 1828 008e 02D0     		beq	.L164
1295:Generated_Source\PSoC4/CyLFClk.c ****                 {
1296:Generated_Source\PSoC4/CyLFClk.c ****                     (void)(cySysWdtCallback[CY_SYS_WDT_COUNTER1])();
 1829              		.loc 1 1296 0
ARM GAS  C:\Users\fabis\AppData\Local\Temp\ccvALjuz.s 			page 56


 1830 0090 144B     		ldr	r3, .L168+12
 1831 0092 5B68     		ldr	r3, [r3, #4]
 1832 0094 9847     		blx	r3
 1833              	.L164:
1297:Generated_Source\PSoC4/CyLFClk.c ****                 }
1298:Generated_Source\PSoC4/CyLFClk.c ****             }
1299:Generated_Source\PSoC4/CyLFClk.c ****             CySysWdtClearInterrupt(CY_SYS_WDT_COUNTER1_INT);
 1834              		.loc 1 1299 0
 1835 0096 8023     		movs	r3, #128
 1836 0098 DB00     		lsls	r3, r3, #3
 1837 009a 1800     		movs	r0, r3
 1838 009c FFF7FEFF 		bl	CySysWdtClearInterrupt
 1839              	.L163:
1300:Generated_Source\PSoC4/CyLFClk.c ****         }
1301:Generated_Source\PSoC4/CyLFClk.c **** 
1302:Generated_Source\PSoC4/CyLFClk.c ****         if(0u != (CY_SYS_WDT_COUNTER2_INT & CY_SYS_WDT_CONTROL_REG))
 1840              		.loc 1 1302 0
 1841 00a0 0D4B     		ldr	r3, .L168
 1842 00a2 1A68     		ldr	r2, [r3]
 1843 00a4 8023     		movs	r3, #128
 1844 00a6 DB02     		lsls	r3, r3, #11
 1845 00a8 1340     		ands	r3, r2
 1846 00aa 11D0     		beq	.L167
1303:Generated_Source\PSoC4/CyLFClk.c ****         {
1304:Generated_Source\PSoC4/CyLFClk.c ****             if(0u != (CY_SYS_WDT_COUNTER2_INT & wdtIsrMask))
 1847              		.loc 1 1304 0
 1848 00ac 0B4B     		ldr	r3, .L168+4
 1849 00ae 1A68     		ldr	r2, [r3]
 1850 00b0 8023     		movs	r3, #128
 1851 00b2 DB02     		lsls	r3, r3, #11
 1852 00b4 1340     		ands	r3, r2
 1853 00b6 06D0     		beq	.L166
1305:Generated_Source\PSoC4/CyLFClk.c ****             {
1306:Generated_Source\PSoC4/CyLFClk.c ****                 if(cySysWdtCallback[CY_SYS_WDT_COUNTER2] != (void *) 0)
 1854              		.loc 1 1306 0
 1855 00b8 0A4B     		ldr	r3, .L168+12
 1856 00ba 9B68     		ldr	r3, [r3, #8]
 1857 00bc 002B     		cmp	r3, #0
 1858 00be 02D0     		beq	.L166
1307:Generated_Source\PSoC4/CyLFClk.c ****                 {
1308:Generated_Source\PSoC4/CyLFClk.c ****                     (void)(cySysWdtCallback[CY_SYS_WDT_COUNTER2])();
 1859              		.loc 1 1308 0
 1860 00c0 084B     		ldr	r3, .L168+12
 1861 00c2 9B68     		ldr	r3, [r3, #8]
 1862 00c4 9847     		blx	r3
 1863              	.L166:
1309:Generated_Source\PSoC4/CyLFClk.c ****                 }
1310:Generated_Source\PSoC4/CyLFClk.c ****             }
1311:Generated_Source\PSoC4/CyLFClk.c ****             CySysWdtClearInterrupt(CY_SYS_WDT_COUNTER2_INT);
 1864              		.loc 1 1311 0
 1865 00c6 8023     		movs	r3, #128
 1866 00c8 DB02     		lsls	r3, r3, #11
 1867 00ca 1800     		movs	r0, r3
 1868 00cc FFF7FEFF 		bl	CySysWdtClearInterrupt
 1869              	.L167:
1312:Generated_Source\PSoC4/CyLFClk.c ****         }
1313:Generated_Source\PSoC4/CyLFClk.c ****     }
ARM GAS  C:\Users\fabis\AppData\Local\Temp\ccvALjuz.s 			page 57


 1870              		.loc 1 1313 0
 1871 00d0 C046     		nop
 1872 00d2 BD46     		mov	sp, r7
 1873              		@ sp needed
 1874 00d4 80BD     		pop	{r7, pc}
 1875              	.L169:
 1876 00d6 C046     		.align	2
 1877              	.L168:
 1878 00d8 10020B40 		.word	1074463248
 1879 00dc 00000000 		.word	wdtIsrMask
 1880 00e0 08000000 		.word	disableServicedIsr
 1881 00e4 0C000000 		.word	cySysWdtCallback
 1882 00e8 FFFBFFFF 		.word	-1025
 1883              		.cfi_endproc
 1884              	.LFE27:
 1885              		.size	CySysWdtIsr, .-CySysWdtIsr
 1886              		.section	.text.CySysTimerDelay,"ax",%progbits
 1887              		.align	2
 1888              		.global	CySysTimerDelay
 1889              		.code	16
 1890              		.thumb_func
 1891              		.type	CySysTimerDelay, %function
 1892              	CySysTimerDelay:
 1893              	.LFB28:
1314:Generated_Source\PSoC4/CyLFClk.c **** 
1315:Generated_Source\PSoC4/CyLFClk.c **** 
1316:Generated_Source\PSoC4/CyLFClk.c ****     /*******************************************************************************
1317:Generated_Source\PSoC4/CyLFClk.c ****     * Function Name: CySysTimerDelay
1318:Generated_Source\PSoC4/CyLFClk.c ****     ********************************************************************************
1319:Generated_Source\PSoC4/CyLFClk.c ****     *
1320:Generated_Source\PSoC4/CyLFClk.c ****     * Summary:
1321:Generated_Source\PSoC4/CyLFClk.c ****     *  The function implements the delay specified in the LFCLK clock ticks. The
1322:Generated_Source\PSoC4/CyLFClk.c ****     *  specified WDT counter should be configured as described below and started.
1323:Generated_Source\PSoC4/CyLFClk.c ****     *
1324:Generated_Source\PSoC4/CyLFClk.c ****     *  This function can operate in two modes: the "WAIT" and "INTERRUPT" modes. In
1325:Generated_Source\PSoC4/CyLFClk.c ****     *  the "WAIT" mode, the function waits for the specified number of ticks. In the
1326:Generated_Source\PSoC4/CyLFClk.c ****     *  "INTERRUPT" mode, the interrupt is generated after the specified number of
1327:Generated_Source\PSoC4/CyLFClk.c ****     *  ticks.
1328:Generated_Source\PSoC4/CyLFClk.c ****     *
1329:Generated_Source\PSoC4/CyLFClk.c ****     *  For the correct function operation, the "Clear On Match" option should be
1330:Generated_Source\PSoC4/CyLFClk.c ****     *  disabled for the specified WDT counter. Use CySysWdtSetClearOnMatch()
1331:Generated_Source\PSoC4/CyLFClk.c ****     *  function with the "enable" parameter equal to zero for the used WDT counter.
1332:Generated_Source\PSoC4/CyLFClk.c ****     *
1333:Generated_Source\PSoC4/CyLFClk.c ****     *  The corresponding WDT counter should be configured to match the selected
1334:Generated_Source\PSoC4/CyLFClk.c ****     *  mode: "Free running Timer" for the "WAIT" mode, and
1335:Generated_Source\PSoC4/CyLFClk.c ****     *  "Periodic Timer" / "Watchdog (w/Interrupt)" for the "INTERRUPT" mode.
1336:Generated_Source\PSoC4/CyLFClk.c ****     *
1337:Generated_Source\PSoC4/CyLFClk.c ****     *  This can be configured in two ways:
1338:Generated_Source\PSoC4/CyLFClk.c ****     *  - Through the DWR page. Open the "Clocks" tab, click the "Edit Clocks..."
1339:Generated_Source\PSoC4/CyLFClk.c ****     *    button, in the "Configure System Clocks" window click on the
1340:Generated_Source\PSoC4/CyLFClk.c ****     *    "Low Frequency Clocks" tab and choose the appropriate option for the used
1341:Generated_Source\PSoC4/CyLFClk.c ****     *    WDT counter.
1342:Generated_Source\PSoC4/CyLFClk.c ****     *
1343:Generated_Source\PSoC4/CyLFClk.c ****     *  - Through the CySysWdtSetMode() function. Call it with the appropriate mode
1344:Generated_Source\PSoC4/CyLFClk.c ****     *    parameter for the used WDT counter.
1345:Generated_Source\PSoC4/CyLFClk.c ****     *
1346:Generated_Source\PSoC4/CyLFClk.c ****     *  For the "INTERRUPT" mode, the recommended sequence is the following:
ARM GAS  C:\Users\fabis\AppData\Local\Temp\ccvALjuz.s 			page 58


1347:Generated_Source\PSoC4/CyLFClk.c ****     *  - Call the CySysWdtDisableCounterIsr() function to disable servicing
1348:Generated_Source\PSoC4/CyLFClk.c ****     *    interrupts of the specified WDT counter.
1349:Generated_Source\PSoC4/CyLFClk.c ****     *
1350:Generated_Source\PSoC4/CyLFClk.c ****     *  - Call the CySysWdtSetInterruptCallback() function to register the callback
1351:Generated_Source\PSoC4/CyLFClk.c ****     *    function for the corresponding WDT counter.
1352:Generated_Source\PSoC4/CyLFClk.c ****     *
1353:Generated_Source\PSoC4/CyLFClk.c ****     *  - Call the CySysTimerDelay() function.
1354:Generated_Source\PSoC4/CyLFClk.c ****     *
1355:Generated_Source\PSoC4/CyLFClk.c ****     * Parameters:
1356:Generated_Source\PSoC4/CyLFClk.c ****     *  counterNum: Valid range [0-1]. The number of the WDT counter (WDT0 or WDT1).
1357:Generated_Source\PSoC4/CyLFClk.c ****     *  delayType : Defines the operation mode.
1358:Generated_Source\PSoC4/CyLFClk.c ****     *               CY_SYS_TIMER_WAIT       "WAIT" mode.
1359:Generated_Source\PSoC4/CyLFClk.c ****     *               CY_SYS_TIMER_INTERRUPT  "INTERRUPT" mode.
1360:Generated_Source\PSoC4/CyLFClk.c ****     *  delay:  The delay value in the LFCLK ticks (allowable range - 16-bit value).
1361:Generated_Source\PSoC4/CyLFClk.c ****     *
1362:Generated_Source\PSoC4/CyLFClk.c ****     * Return:
1363:Generated_Source\PSoC4/CyLFClk.c ****     *  None
1364:Generated_Source\PSoC4/CyLFClk.c ****     *
1365:Generated_Source\PSoC4/CyLFClk.c ****     * Side effects:
1366:Generated_Source\PSoC4/CyLFClk.c ****     *  In the "INTERRUPT" mode, this function enables ISR callback servicing
1367:Generated_Source\PSoC4/CyLFClk.c ****     *  from the corresponding WDT counter. Servicing of this ISR callback will be
1368:Generated_Source\PSoC4/CyLFClk.c ****     *  disabled after the expiration of the delay time.
1369:Generated_Source\PSoC4/CyLFClk.c ****     *
1370:Generated_Source\PSoC4/CyLFClk.c ****     *******************************************************************************/
1371:Generated_Source\PSoC4/CyLFClk.c ****     void CySysTimerDelay(uint32 counterNum, cy_sys_timer_delaytype_enum delayType, uint32 delay)
1372:Generated_Source\PSoC4/CyLFClk.c ****     {
 1894              		.loc 1 1372 0
 1895              		.cfi_startproc
 1896              		@ args = 0, pretend = 0, frame = 24
 1897              		@ frame_needed = 1, uses_anonymous_args = 0
 1898 0000 80B5     		push	{r7, lr}
 1899              		.cfi_def_cfa_offset 8
 1900              		.cfi_offset 7, -8
 1901              		.cfi_offset 14, -4
 1902 0002 86B0     		sub	sp, sp, #24
 1903              		.cfi_def_cfa_offset 32
 1904 0004 00AF     		add	r7, sp, #0
 1905              		.cfi_def_cfa_register 7
 1906 0006 F860     		str	r0, [r7, #12]
 1907 0008 7A60     		str	r2, [r7, #4]
 1908 000a 0B23     		movs	r3, #11
 1909 000c FB18     		adds	r3, r7, r3
 1910 000e 0A1C     		adds	r2, r1, #0
 1911 0010 1A70     		strb	r2, [r3]
1373:Generated_Source\PSoC4/CyLFClk.c ****         uint32 regValue;
1374:Generated_Source\PSoC4/CyLFClk.c ****         uint32 matchValue;
1375:Generated_Source\PSoC4/CyLFClk.c **** 
1376:Generated_Source\PSoC4/CyLFClk.c ****         if((counterNum < CY_SYS_WDT_COUNTER2) && (0uL == CySysWdtGetClearOnMatch(counterNum)) && (d
 1912              		.loc 1 1376 0
 1913 0012 FB68     		ldr	r3, [r7, #12]
 1914 0014 012B     		cmp	r3, #1
 1915 0016 1ED8     		bhi	.L171
 1916              		.loc 1 1376 0 is_stmt 0 discriminator 1
 1917 0018 FB68     		ldr	r3, [r7, #12]
 1918 001a 1800     		movs	r0, r3
 1919 001c FFF7FEFF 		bl	CySysWdtGetClearOnMatch
 1920 0020 031E     		subs	r3, r0, #0
ARM GAS  C:\Users\fabis\AppData\Local\Temp\ccvALjuz.s 			page 59


 1921 0022 18D1     		bne	.L171
 1922              		.loc 1 1376 0 discriminator 2
 1923 0024 7B68     		ldr	r3, [r7, #4]
 1924 0026 0F4A     		ldr	r2, .L173
 1925 0028 9342     		cmp	r3, r2
 1926 002a 14D8     		bhi	.L171
1377:Generated_Source\PSoC4/CyLFClk.c ****         {
1378:Generated_Source\PSoC4/CyLFClk.c ****             regValue   = CySysWdtGetCount(counterNum);
 1927              		.loc 1 1378 0 is_stmt 1
 1928 002c FB68     		ldr	r3, [r7, #12]
 1929 002e 1800     		movs	r0, r3
 1930 0030 FFF7FEFF 		bl	CySysWdtGetCount
 1931 0034 0300     		movs	r3, r0
 1932 0036 7B61     		str	r3, [r7, #20]
1379:Generated_Source\PSoC4/CyLFClk.c ****             matchValue = (regValue + delay) & (uint32)UINT16_MAX_VAL;
 1933              		.loc 1 1379 0
 1934 0038 7A69     		ldr	r2, [r7, #20]
 1935 003a 7B68     		ldr	r3, [r7, #4]
 1936 003c D318     		adds	r3, r2, r3
 1937 003e 1B04     		lsls	r3, r3, #16
 1938 0040 1B0C     		lsrs	r3, r3, #16
 1939 0042 3B61     		str	r3, [r7, #16]
1380:Generated_Source\PSoC4/CyLFClk.c **** 
1381:Generated_Source\PSoC4/CyLFClk.c ****             CySysTimerDelayUntilMatch(counterNum, delayType, matchValue);
 1940              		.loc 1 1381 0
 1941 0044 3A69     		ldr	r2, [r7, #16]
 1942 0046 0B23     		movs	r3, #11
 1943 0048 FB18     		adds	r3, r7, r3
 1944 004a 1978     		ldrb	r1, [r3]
 1945 004c FB68     		ldr	r3, [r7, #12]
 1946 004e 1800     		movs	r0, r3
 1947 0050 FFF7FEFF 		bl	CySysTimerDelayUntilMatch
 1948 0054 02E0     		b	.L172
 1949              	.L171:
1382:Generated_Source\PSoC4/CyLFClk.c ****         }
1383:Generated_Source\PSoC4/CyLFClk.c ****         else
1384:Generated_Source\PSoC4/CyLFClk.c ****         {
1385:Generated_Source\PSoC4/CyLFClk.c ****             CYASSERT(0u != 0u);
 1950              		.loc 1 1385 0 discriminator 1
 1951 0056 0020     		movs	r0, #0
 1952 0058 FFF7FEFF 		bl	CyHalt
 1953              	.L172:
1386:Generated_Source\PSoC4/CyLFClk.c ****         }
1387:Generated_Source\PSoC4/CyLFClk.c ****     }
 1954              		.loc 1 1387 0
 1955 005c C046     		nop
 1956 005e BD46     		mov	sp, r7
 1957 0060 06B0     		add	sp, sp, #24
 1958              		@ sp needed
 1959 0062 80BD     		pop	{r7, pc}
 1960              	.L174:
 1961              		.align	2
 1962              	.L173:
 1963 0064 FFFF0000 		.word	65535
 1964              		.cfi_endproc
 1965              	.LFE28:
 1966              		.size	CySysTimerDelay, .-CySysTimerDelay
ARM GAS  C:\Users\fabis\AppData\Local\Temp\ccvALjuz.s 			page 60


 1967              		.section	.text.CySysTimerDelayUntilMatch,"ax",%progbits
 1968              		.align	2
 1969              		.global	CySysTimerDelayUntilMatch
 1970              		.code	16
 1971              		.thumb_func
 1972              		.type	CySysTimerDelayUntilMatch, %function
 1973              	CySysTimerDelayUntilMatch:
 1974              	.LFB29:
1388:Generated_Source\PSoC4/CyLFClk.c **** 
1389:Generated_Source\PSoC4/CyLFClk.c **** 
1390:Generated_Source\PSoC4/CyLFClk.c ****     /*******************************************************************************
1391:Generated_Source\PSoC4/CyLFClk.c ****     * Function Name: CySysTimerDelayUntilMatch
1392:Generated_Source\PSoC4/CyLFClk.c ****     ********************************************************************************
1393:Generated_Source\PSoC4/CyLFClk.c ****     *
1394:Generated_Source\PSoC4/CyLFClk.c ****     * Summary:
1395:Generated_Source\PSoC4/CyLFClk.c ****     *  The function implements the delay specified as the number of LFCLK ticks
1396:Generated_Source\PSoC4/CyLFClk.c ****     *  between the specified WDT counter's current value and the "match" passed as
1397:Generated_Source\PSoC4/CyLFClk.c ****     *  the parameter to this function. The current WDT counter value can be obtained
1398:Generated_Source\PSoC4/CyLFClk.c ****     *  using the CySysWdtGetCount() function.
1399:Generated_Source\PSoC4/CyLFClk.c ****     *
1400:Generated_Source\PSoC4/CyLFClk.c ****     *  This function can operate in two modes: the "WAIT" and "INTERRUPT" mode. In
1401:Generated_Source\PSoC4/CyLFClk.c ****     *  the "WAIT" mode, the function waits while the used WDT counter value becomes
1402:Generated_Source\PSoC4/CyLFClk.c ****     *  equal to the match value. In the "INTERRUPT" mode, the interrupt is generated
1403:Generated_Source\PSoC4/CyLFClk.c ****     *  when the used WDT counter became equal to the "match" value.
1404:Generated_Source\PSoC4/CyLFClk.c ****     *
1405:Generated_Source\PSoC4/CyLFClk.c ****     *  For the correct function operation, the "Clear On Match" option should be
1406:Generated_Source\PSoC4/CyLFClk.c ****     *  disabled for the specified WDT counter. Use CySysWdtSetClearOnMatch()
1407:Generated_Source\PSoC4/CyLFClk.c ****     *  function with the "enable" parameter equal to zero for the used WDT counter.
1408:Generated_Source\PSoC4/CyLFClk.c ****     *
1409:Generated_Source\PSoC4/CyLFClk.c ****     *  The corresponding WDT counter should be configured to match the selected mode:
1410:Generated_Source\PSoC4/CyLFClk.c ****     *  "Free running Timer" for the "WAIT" mode, and "Periodic Timer" / "Watchdog
1411:Generated_Source\PSoC4/CyLFClk.c ****     *  (w/Interrupt)" for the "INTERRUPT" mode.
1412:Generated_Source\PSoC4/CyLFClk.c ****     *
1413:Generated_Source\PSoC4/CyLFClk.c ****     *  This can be configured in two ways:
1414:Generated_Source\PSoC4/CyLFClk.c ****     *  - Through the DWR page. Open the "Clocks" tab, click the "Edit Clocks..."
1415:Generated_Source\PSoC4/CyLFClk.c ****     *    button, in the "Configure System Clocks" window click on the
1416:Generated_Source\PSoC4/CyLFClk.c ****     *    "Low Frequency Clocks" tab and choose the appropriate option for the used
1417:Generated_Source\PSoC4/CyLFClk.c ****     *    WDT counter.
1418:Generated_Source\PSoC4/CyLFClk.c ****     *
1419:Generated_Source\PSoC4/CyLFClk.c ****     *  - Through the CySysWdtSetMode() function. Call it with the appropriate "mode"
1420:Generated_Source\PSoC4/CyLFClk.c ****     *    parameter for the used WDT counter.
1421:Generated_Source\PSoC4/CyLFClk.c ****     *
1422:Generated_Source\PSoC4/CyLFClk.c ****     *  For the "INTERRUPT" mode, the recommended sequence is the following:
1423:Generated_Source\PSoC4/CyLFClk.c ****     *  - Call the CySysWdtDisableCounterIsr() function to disable servicing
1424:Generated_Source\PSoC4/CyLFClk.c ****     *    interrupts of the specified WDT counter.
1425:Generated_Source\PSoC4/CyLFClk.c ****     *
1426:Generated_Source\PSoC4/CyLFClk.c ****     *  - Call the CySysWdtSetInterruptCallback() function to register the callback
1427:Generated_Source\PSoC4/CyLFClk.c ****     *    function for the corresponding WDT counter.
1428:Generated_Source\PSoC4/CyLFClk.c ****     *
1429:Generated_Source\PSoC4/CyLFClk.c ****     *  - Call the CySysTimerDelay() function.
1430:Generated_Source\PSoC4/CyLFClk.c ****     *
1431:Generated_Source\PSoC4/CyLFClk.c ****     * Parameters:
1432:Generated_Source\PSoC4/CyLFClk.c ****     *  counterNum: Valid range [0-1]. The number of the WDT counter (WDT0 or WDT1).
1433:Generated_Source\PSoC4/CyLFClk.c ****     *  delayType : Defines the operation mode.
1434:Generated_Source\PSoC4/CyLFClk.c ****     *               CY_SYS_TIMER_WAIT       "WAIT" mode.
1435:Generated_Source\PSoC4/CyLFClk.c ****     *               CY_SYS_TIMER_INTERRUPT  "INTERRUPT" mode.
1436:Generated_Source\PSoC4/CyLFClk.c ****     *  delay:  The delay value in the LFCLK ticks (allowable range - 16-bit value).
ARM GAS  C:\Users\fabis\AppData\Local\Temp\ccvALjuz.s 			page 61


1437:Generated_Source\PSoC4/CyLFClk.c ****     *
1438:Generated_Source\PSoC4/CyLFClk.c ****     * Return:
1439:Generated_Source\PSoC4/CyLFClk.c ****     *  None
1440:Generated_Source\PSoC4/CyLFClk.c ****     *
1441:Generated_Source\PSoC4/CyLFClk.c ****     * Side effects:
1442:Generated_Source\PSoC4/CyLFClk.c ****     *  In the "INTERRUPT" mode, this function enables ISR callback servicing
1443:Generated_Source\PSoC4/CyLFClk.c ****     *  from the corresponding WDT counter. Servicing of this ISR callback will be
1444:Generated_Source\PSoC4/CyLFClk.c ****     *  disabled after the expiration of the delay time.
1445:Generated_Source\PSoC4/CyLFClk.c ****     *
1446:Generated_Source\PSoC4/CyLFClk.c ****     *******************************************************************************/
1447:Generated_Source\PSoC4/CyLFClk.c ****     void CySysTimerDelayUntilMatch(uint32 counterNum, cy_sys_timer_delaytype_enum delayType, uint32
1448:Generated_Source\PSoC4/CyLFClk.c ****     {
 1975              		.loc 1 1448 0
 1976              		.cfi_startproc
 1977              		@ args = 0, pretend = 0, frame = 24
 1978              		@ frame_needed = 1, uses_anonymous_args = 0
 1979 0000 80B5     		push	{r7, lr}
 1980              		.cfi_def_cfa_offset 8
 1981              		.cfi_offset 7, -8
 1982              		.cfi_offset 14, -4
 1983 0002 86B0     		sub	sp, sp, #24
 1984              		.cfi_def_cfa_offset 32
 1985 0004 00AF     		add	r7, sp, #0
 1986              		.cfi_def_cfa_register 7
 1987 0006 F860     		str	r0, [r7, #12]
 1988 0008 7A60     		str	r2, [r7, #4]
 1989 000a 0B23     		movs	r3, #11
 1990 000c FB18     		adds	r3, r7, r3
 1991 000e 0A1C     		adds	r2, r1, #0
 1992 0010 1A70     		strb	r2, [r3]
1449:Generated_Source\PSoC4/CyLFClk.c ****         uint32 tmpValue;
1450:Generated_Source\PSoC4/CyLFClk.c **** 
1451:Generated_Source\PSoC4/CyLFClk.c ****         if((counterNum < CY_SYS_WDT_COUNTER2) && (0uL == CySysWdtGetClearOnMatch(counterNum)) && (m
 1993              		.loc 1 1451 0
 1994 0012 FB68     		ldr	r3, [r7, #12]
 1995 0014 012B     		cmp	r3, #1
 1996 0016 3BD8     		bhi	.L176
 1997              		.loc 1 1451 0 is_stmt 0 discriminator 1
 1998 0018 FB68     		ldr	r3, [r7, #12]
 1999 001a 1800     		movs	r0, r3
 2000 001c FFF7FEFF 		bl	CySysWdtGetClearOnMatch
 2001 0020 031E     		subs	r3, r0, #0
 2002 0022 35D1     		bne	.L176
 2003              		.loc 1 1451 0 discriminator 2
 2004 0024 7B68     		ldr	r3, [r7, #4]
 2005 0026 1E4A     		ldr	r2, .L182
 2006 0028 9342     		cmp	r3, r2
 2007 002a 31D8     		bhi	.L176
1452:Generated_Source\PSoC4/CyLFClk.c ****         {
1453:Generated_Source\PSoC4/CyLFClk.c ****             if(delayType == CY_SYS_TIMER_WAIT)
 2008              		.loc 1 1453 0 is_stmt 1
 2009 002c 0B23     		movs	r3, #11
 2010 002e FB18     		adds	r3, r7, r3
 2011 0030 1B78     		ldrb	r3, [r3]
 2012 0032 002B     		cmp	r3, #0
 2013 0034 14D1     		bne	.L177
 2014              	.L178:
ARM GAS  C:\Users\fabis\AppData\Local\Temp\ccvALjuz.s 			page 62


1454:Generated_Source\PSoC4/CyLFClk.c ****             {
1455:Generated_Source\PSoC4/CyLFClk.c ****                 do
1456:Generated_Source\PSoC4/CyLFClk.c ****                 {
1457:Generated_Source\PSoC4/CyLFClk.c ****                     tmpValue = CySysWdtGetCount(counterNum);
 2015              		.loc 1 1457 0 discriminator 1
 2016 0036 FB68     		ldr	r3, [r7, #12]
 2017 0038 1800     		movs	r0, r3
 2018 003a FFF7FEFF 		bl	CySysWdtGetCount
 2019 003e 0300     		movs	r3, r0
 2020 0040 7B61     		str	r3, [r7, #20]
1458:Generated_Source\PSoC4/CyLFClk.c ****                 }while(tmpValue > match);
 2021              		.loc 1 1458 0 discriminator 1
 2022 0042 7A69     		ldr	r2, [r7, #20]
 2023 0044 7B68     		ldr	r3, [r7, #4]
 2024 0046 9A42     		cmp	r2, r3
 2025 0048 F5D8     		bhi	.L178
 2026              	.L179:
1459:Generated_Source\PSoC4/CyLFClk.c **** 
1460:Generated_Source\PSoC4/CyLFClk.c ****                 do
1461:Generated_Source\PSoC4/CyLFClk.c ****                 {
1462:Generated_Source\PSoC4/CyLFClk.c ****                     tmpValue = CySysWdtGetCount(counterNum);
 2027              		.loc 1 1462 0 discriminator 1
 2028 004a FB68     		ldr	r3, [r7, #12]
 2029 004c 1800     		movs	r0, r3
 2030 004e FFF7FEFF 		bl	CySysWdtGetCount
 2031 0052 0300     		movs	r3, r0
 2032 0054 7B61     		str	r3, [r7, #20]
1463:Generated_Source\PSoC4/CyLFClk.c ****                 }while(tmpValue < match);
 2033              		.loc 1 1463 0 discriminator 1
 2034 0056 7A69     		ldr	r2, [r7, #20]
 2035 0058 7B68     		ldr	r3, [r7, #4]
 2036 005a 9A42     		cmp	r2, r3
 2037 005c F5D3     		bcc	.L179
1453:Generated_Source\PSoC4/CyLFClk.c ****             {
 2038              		.loc 1 1453 0
 2039 005e 1AE0     		b	.L181
 2040              	.L177:
1464:Generated_Source\PSoC4/CyLFClk.c ****             }
1465:Generated_Source\PSoC4/CyLFClk.c ****             else
1466:Generated_Source\PSoC4/CyLFClk.c ****             {
1467:Generated_Source\PSoC4/CyLFClk.c ****                 tmpValue = counterIntMaskTbl[counterNum];
 2041              		.loc 1 1467 0
 2042 0060 104B     		ldr	r3, .L182+4
 2043 0062 FA68     		ldr	r2, [r7, #12]
 2044 0064 9200     		lsls	r2, r2, #2
 2045 0066 D358     		ldr	r3, [r2, r3]
 2046 0068 7B61     		str	r3, [r7, #20]
1468:Generated_Source\PSoC4/CyLFClk.c ****                 CySysWdtSetMatch(counterNum, match);
 2047              		.loc 1 1468 0
 2048 006a 7A68     		ldr	r2, [r7, #4]
 2049 006c FB68     		ldr	r3, [r7, #12]
 2050 006e 1100     		movs	r1, r2
 2051 0070 1800     		movs	r0, r3
 2052 0072 FFF7FEFF 		bl	CySysWdtSetMatch
1469:Generated_Source\PSoC4/CyLFClk.c **** 
1470:Generated_Source\PSoC4/CyLFClk.c ****                 disableServicedIsr  |= tmpValue;
 2053              		.loc 1 1470 0
ARM GAS  C:\Users\fabis\AppData\Local\Temp\ccvALjuz.s 			page 63


 2054 0076 0C4B     		ldr	r3, .L182+8
 2055 0078 1A68     		ldr	r2, [r3]
 2056 007a 7B69     		ldr	r3, [r7, #20]
 2057 007c 1A43     		orrs	r2, r3
 2058 007e 0A4B     		ldr	r3, .L182+8
 2059 0080 1A60     		str	r2, [r3]
1471:Generated_Source\PSoC4/CyLFClk.c ****                 wdtIsrMask |= tmpValue;
 2060              		.loc 1 1471 0
 2061 0082 0A4B     		ldr	r3, .L182+12
 2062 0084 1A68     		ldr	r2, [r3]
 2063 0086 7B69     		ldr	r3, [r7, #20]
 2064 0088 1A43     		orrs	r2, r3
 2065 008a 084B     		ldr	r3, .L182+12
 2066 008c 1A60     		str	r2, [r3]
1453:Generated_Source\PSoC4/CyLFClk.c ****             {
 2067              		.loc 1 1453 0
 2068 008e 02E0     		b	.L181
 2069              	.L176:
1472:Generated_Source\PSoC4/CyLFClk.c ****             }
1473:Generated_Source\PSoC4/CyLFClk.c ****         }
1474:Generated_Source\PSoC4/CyLFClk.c ****         else
1475:Generated_Source\PSoC4/CyLFClk.c ****         {
1476:Generated_Source\PSoC4/CyLFClk.c ****             CYASSERT(0u != 0u);
 2070              		.loc 1 1476 0 discriminator 1
 2071 0090 0020     		movs	r0, #0
 2072 0092 FFF7FEFF 		bl	CyHalt
 2073              	.L181:
1477:Generated_Source\PSoC4/CyLFClk.c ****         }
1478:Generated_Source\PSoC4/CyLFClk.c ****     }
 2074              		.loc 1 1478 0
 2075 0096 C046     		nop
 2076 0098 BD46     		mov	sp, r7
 2077 009a 06B0     		add	sp, sp, #24
 2078              		@ sp needed
 2079 009c 80BD     		pop	{r7, pc}
 2080              	.L183:
 2081 009e C046     		.align	2
 2082              	.L182:
 2083 00a0 FFFF0000 		.word	65535
 2084 00a4 00000000 		.word	counterIntMaskTbl
 2085 00a8 08000000 		.word	disableServicedIsr
 2086 00ac 00000000 		.word	wdtIsrMask
 2087              		.cfi_endproc
 2088              	.LFE29:
 2089              		.size	CySysTimerDelayUntilMatch, .-CySysTimerDelayUntilMatch
 2090              		.section	.text.CySysWatchdogFeed,"ax",%progbits
 2091              		.align	2
 2092              		.global	CySysWatchdogFeed
 2093              		.code	16
 2094              		.thumb_func
 2095              		.type	CySysWatchdogFeed, %function
 2096              	CySysWatchdogFeed:
 2097              	.LFB30:
1479:Generated_Source\PSoC4/CyLFClk.c **** 
1480:Generated_Source\PSoC4/CyLFClk.c **** 
1481:Generated_Source\PSoC4/CyLFClk.c ****     /*******************************************************************************
1482:Generated_Source\PSoC4/CyLFClk.c ****     * Function Name: CySysWatchdogFeed
ARM GAS  C:\Users\fabis\AppData\Local\Temp\ccvALjuz.s 			page 64


1483:Generated_Source\PSoC4/CyLFClk.c ****     ********************************************************************************
1484:Generated_Source\PSoC4/CyLFClk.c ****     *
1485:Generated_Source\PSoC4/CyLFClk.c ****     * Summary:
1486:Generated_Source\PSoC4/CyLFClk.c ****     *  Feeds the watchdog counter before it causes the device reset. Supported only
1487:Generated_Source\PSoC4/CyLFClk.c ****     *  for WDT0 and WDT1 in the "Watchdog" or "Watchdog w/ Interrupts" modes.
1488:Generated_Source\PSoC4/CyLFClk.c ****     *
1489:Generated_Source\PSoC4/CyLFClk.c ****     * Parameters:
1490:Generated_Source\PSoC4/CyLFClk.c ****     *  counterNum:    The number of the WDT counter.
1491:Generated_Source\PSoC4/CyLFClk.c ****     *
1492:Generated_Source\PSoC4/CyLFClk.c ****     * Return:
1493:Generated_Source\PSoC4/CyLFClk.c ****     *  None.
1494:Generated_Source\PSoC4/CyLFClk.c ****     *
1495:Generated_Source\PSoC4/CyLFClk.c ****     * Side effects:
1496:Generated_Source\PSoC4/CyLFClk.c ****     *  Clears the WDT counter in the "Watchdog" mode or clears the WDT interrupt in
1497:Generated_Source\PSoC4/CyLFClk.c ****     *  "Watchdog w/ Interrupts" mode. Does nothing in other modes.
1498:Generated_Source\PSoC4/CyLFClk.c ****     *
1499:Generated_Source\PSoC4/CyLFClk.c ****     *******************************************************************************/
1500:Generated_Source\PSoC4/CyLFClk.c ****     void CySysWatchdogFeed(uint32 counterNum)
1501:Generated_Source\PSoC4/CyLFClk.c ****     {
 2098              		.loc 1 1501 0
 2099              		.cfi_startproc
 2100              		@ args = 0, pretend = 0, frame = 8
 2101              		@ frame_needed = 1, uses_anonymous_args = 0
 2102 0000 80B5     		push	{r7, lr}
 2103              		.cfi_def_cfa_offset 8
 2104              		.cfi_offset 7, -8
 2105              		.cfi_offset 14, -4
 2106 0002 82B0     		sub	sp, sp, #8
 2107              		.cfi_def_cfa_offset 16
 2108 0004 00AF     		add	r7, sp, #0
 2109              		.cfi_def_cfa_register 7
 2110 0006 7860     		str	r0, [r7, #4]
1502:Generated_Source\PSoC4/CyLFClk.c ****         if(counterNum == CY_SYS_WDT_COUNTER0)
 2111              		.loc 1 1502 0
 2112 0008 7B68     		ldr	r3, [r7, #4]
 2113 000a 002B     		cmp	r3, #0
 2114 000c 18D1     		bne	.L185
1503:Generated_Source\PSoC4/CyLFClk.c ****         {
1504:Generated_Source\PSoC4/CyLFClk.c ****             if(CY_SYS_WDT_MODE_INT_RESET == CySysWdtGetMode(counterNum))
 2115              		.loc 1 1504 0
 2116 000e 7B68     		ldr	r3, [r7, #4]
 2117 0010 1800     		movs	r0, r3
 2118 0012 FFF7FEFF 		bl	CySysWdtGetMode
 2119 0016 0300     		movs	r3, r0
 2120 0018 032B     		cmp	r3, #3
 2121 001a 03D1     		bne	.L186
1505:Generated_Source\PSoC4/CyLFClk.c ****             {
1506:Generated_Source\PSoC4/CyLFClk.c ****                 CySysWdtClearInterrupt(CY_SYS_WDT_COUNTER0_MASK);
 2122              		.loc 1 1506 0
 2123 001c 0120     		movs	r0, #1
 2124 001e FFF7FEFF 		bl	CySysWdtClearInterrupt
1507:Generated_Source\PSoC4/CyLFClk.c ****             }
1508:Generated_Source\PSoC4/CyLFClk.c ****             else if(CY_SYS_WDT_MODE_RESET == CySysWdtGetMode(counterNum))
1509:Generated_Source\PSoC4/CyLFClk.c ****             {
1510:Generated_Source\PSoC4/CyLFClk.c ****                 CySysWdtResetCounters(CY_SYS_WDT_COUNTER0_RESET);
1511:Generated_Source\PSoC4/CyLFClk.c ****                 CySysWdtClearInterrupt(CY_SYS_WDT_COUNTER0_MASK);
1512:Generated_Source\PSoC4/CyLFClk.c ****             }
ARM GAS  C:\Users\fabis\AppData\Local\Temp\ccvALjuz.s 			page 65


1513:Generated_Source\PSoC4/CyLFClk.c ****             else
1514:Generated_Source\PSoC4/CyLFClk.c ****             {
1515:Generated_Source\PSoC4/CyLFClk.c ****                 /* Do nothing. */
1516:Generated_Source\PSoC4/CyLFClk.c ****             }
1517:Generated_Source\PSoC4/CyLFClk.c ****         }
1518:Generated_Source\PSoC4/CyLFClk.c ****         else if(counterNum == CY_SYS_WDT_COUNTER1)
1519:Generated_Source\PSoC4/CyLFClk.c ****         {
1520:Generated_Source\PSoC4/CyLFClk.c ****             if(CY_SYS_WDT_MODE_INT_RESET == CySysWdtGetMode(counterNum))
1521:Generated_Source\PSoC4/CyLFClk.c ****             {
1522:Generated_Source\PSoC4/CyLFClk.c ****                 CySysWdtClearInterrupt(CY_SYS_WDT_COUNTER1_MASK);
1523:Generated_Source\PSoC4/CyLFClk.c ****             }
1524:Generated_Source\PSoC4/CyLFClk.c ****             else if(CY_SYS_WDT_MODE_RESET == CySysWdtGetMode(counterNum))
1525:Generated_Source\PSoC4/CyLFClk.c ****             {
1526:Generated_Source\PSoC4/CyLFClk.c ****                 CySysWdtResetCounters(CY_SYS_WDT_COUNTER1_RESET);
1527:Generated_Source\PSoC4/CyLFClk.c ****                 CySysWdtClearInterrupt(CY_SYS_WDT_COUNTER1_MASK);
1528:Generated_Source\PSoC4/CyLFClk.c ****             }
1529:Generated_Source\PSoC4/CyLFClk.c ****             else
1530:Generated_Source\PSoC4/CyLFClk.c ****             {
1531:Generated_Source\PSoC4/CyLFClk.c ****                 /* Do nothing. */
1532:Generated_Source\PSoC4/CyLFClk.c ****             }
1533:Generated_Source\PSoC4/CyLFClk.c ****         }
1534:Generated_Source\PSoC4/CyLFClk.c ****         else
1535:Generated_Source\PSoC4/CyLFClk.c ****         {
1536:Generated_Source\PSoC4/CyLFClk.c ****             /* Do nothing. */
1537:Generated_Source\PSoC4/CyLFClk.c ****         }
1538:Generated_Source\PSoC4/CyLFClk.c ****     }
 2125              		.loc 1 1538 0
 2126 0022 2EE0     		b	.L189
 2127              	.L186:
1508:Generated_Source\PSoC4/CyLFClk.c ****             {
 2128              		.loc 1 1508 0
 2129 0024 7B68     		ldr	r3, [r7, #4]
 2130 0026 1800     		movs	r0, r3
 2131 0028 FFF7FEFF 		bl	CySysWdtGetMode
 2132 002c 0300     		movs	r3, r0
 2133 002e 022B     		cmp	r3, #2
 2134 0030 27D1     		bne	.L189
1510:Generated_Source\PSoC4/CyLFClk.c ****                 CySysWdtClearInterrupt(CY_SYS_WDT_COUNTER0_MASK);
 2135              		.loc 1 1510 0
 2136 0032 0820     		movs	r0, #8
 2137 0034 FFF7FEFF 		bl	CySysWdtResetCounters
1511:Generated_Source\PSoC4/CyLFClk.c ****             }
 2138              		.loc 1 1511 0
 2139 0038 0120     		movs	r0, #1
 2140 003a FFF7FEFF 		bl	CySysWdtClearInterrupt
 2141              		.loc 1 1538 0
 2142 003e 20E0     		b	.L189
 2143              	.L185:
1518:Generated_Source\PSoC4/CyLFClk.c ****         {
 2144              		.loc 1 1518 0
 2145 0040 7B68     		ldr	r3, [r7, #4]
 2146 0042 012B     		cmp	r3, #1
 2147 0044 1DD1     		bne	.L189
1520:Generated_Source\PSoC4/CyLFClk.c ****             {
 2148              		.loc 1 1520 0
 2149 0046 7B68     		ldr	r3, [r7, #4]
 2150 0048 1800     		movs	r0, r3
ARM GAS  C:\Users\fabis\AppData\Local\Temp\ccvALjuz.s 			page 66


 2151 004a FFF7FEFF 		bl	CySysWdtGetMode
 2152 004e 0300     		movs	r3, r0
 2153 0050 032B     		cmp	r3, #3
 2154 0052 05D1     		bne	.L188
1522:Generated_Source\PSoC4/CyLFClk.c ****             }
 2155              		.loc 1 1522 0
 2156 0054 8023     		movs	r3, #128
 2157 0056 5B00     		lsls	r3, r3, #1
 2158 0058 1800     		movs	r0, r3
 2159 005a FFF7FEFF 		bl	CySysWdtClearInterrupt
 2160              		.loc 1 1538 0
 2161 005e 10E0     		b	.L189
 2162              	.L188:
1524:Generated_Source\PSoC4/CyLFClk.c ****             {
 2163              		.loc 1 1524 0
 2164 0060 7B68     		ldr	r3, [r7, #4]
 2165 0062 1800     		movs	r0, r3
 2166 0064 FFF7FEFF 		bl	CySysWdtGetMode
 2167 0068 0300     		movs	r3, r0
 2168 006a 022B     		cmp	r3, #2
 2169 006c 09D1     		bne	.L189
1526:Generated_Source\PSoC4/CyLFClk.c ****                 CySysWdtClearInterrupt(CY_SYS_WDT_COUNTER1_MASK);
 2170              		.loc 1 1526 0
 2171 006e 8023     		movs	r3, #128
 2172 0070 1B01     		lsls	r3, r3, #4
 2173 0072 1800     		movs	r0, r3
 2174 0074 FFF7FEFF 		bl	CySysWdtResetCounters
1527:Generated_Source\PSoC4/CyLFClk.c ****             }
 2175              		.loc 1 1527 0
 2176 0078 8023     		movs	r3, #128
 2177 007a 5B00     		lsls	r3, r3, #1
 2178 007c 1800     		movs	r0, r3
 2179 007e FFF7FEFF 		bl	CySysWdtClearInterrupt
 2180              	.L189:
 2181              		.loc 1 1538 0
 2182 0082 C046     		nop
 2183 0084 BD46     		mov	sp, r7
 2184 0086 02B0     		add	sp, sp, #8
 2185              		@ sp needed
 2186 0088 80BD     		pop	{r7, pc}
 2187              		.cfi_endproc
 2188              	.LFE30:
 2189              		.size	CySysWatchdogFeed, .-CySysWatchdogFeed
 2190 008a C046     		.section	.text.CySysClkLfclkPosedgeCatch,"ax",%progbits
 2191              		.align	2
 2192              		.code	16
 2193              		.thumb_func
 2194              		.type	CySysClkLfclkPosedgeCatch, %function
 2195              	CySysClkLfclkPosedgeCatch:
 2196              	.LFB31:
1539:Generated_Source\PSoC4/CyLFClk.c **** 
1540:Generated_Source\PSoC4/CyLFClk.c **** 
1541:Generated_Source\PSoC4/CyLFClk.c ****     /*******************************************************************************
1542:Generated_Source\PSoC4/CyLFClk.c ****     * Function Name: CySysClkLfclkPosedgeCatch
1543:Generated_Source\PSoC4/CyLFClk.c ****     ********************************************************************************
1544:Generated_Source\PSoC4/CyLFClk.c ****     *
1545:Generated_Source\PSoC4/CyLFClk.c ****     * Summary:
ARM GAS  C:\Users\fabis\AppData\Local\Temp\ccvALjuz.s 			page 67


1546:Generated_Source\PSoC4/CyLFClk.c ****     *  Returns once the LFCLK positive edge occurred.
1547:Generated_Source\PSoC4/CyLFClk.c ****     *
1548:Generated_Source\PSoC4/CyLFClk.c ****     *  CySysClkLfclkPosedgeRestore() should be called after this function
1549:Generated_Source\PSoC4/CyLFClk.c ****     *  to restore the WDT configuration.
1550:Generated_Source\PSoC4/CyLFClk.c ****     *
1551:Generated_Source\PSoC4/CyLFClk.c ****     *  A pair of the CySysClkLfclkPosedgeCatch() and CySysClkLfclkPosedgeRestore()
1552:Generated_Source\PSoC4/CyLFClk.c ****     *  functions is expected to be called inside a critical section.
1553:Generated_Source\PSoC4/CyLFClk.c ****     *
1554:Generated_Source\PSoC4/CyLFClk.c ****     *  To ensure that the WDT counter value is read until it changes, the enabled
1555:Generated_Source\PSoC4/CyLFClk.c ****     *  WDT counter is used. If no counter is enabled, counter 0 is enabled.
1556:Generated_Source\PSoC4/CyLFClk.c ****     *  And after the LFCLK source is switched, the counter 0 configuration
1557:Generated_Source\PSoC4/CyLFClk.c ****     *  is restored.
1558:Generated_Source\PSoC4/CyLFClk.c ****     *
1559:Generated_Source\PSoC4/CyLFClk.c ****     *  Not applicable for the PSoC 4000 devices.
1560:Generated_Source\PSoC4/CyLFClk.c ****     *
1561:Generated_Source\PSoC4/CyLFClk.c ****     * Parameters:
1562:Generated_Source\PSoC4/CyLFClk.c ****     *  None.
1563:Generated_Source\PSoC4/CyLFClk.c ****     *
1564:Generated_Source\PSoC4/CyLFClk.c ****     * Return:
1565:Generated_Source\PSoC4/CyLFClk.c ****     *  None.
1566:Generated_Source\PSoC4/CyLFClk.c ****     *
1567:Generated_Source\PSoC4/CyLFClk.c ****     * Side Effects:
1568:Generated_Source\PSoC4/CyLFClk.c ****     *  This function has no effect if WDT is locked (CySysWdtLock() is
1569:Generated_Source\PSoC4/CyLFClk.c ****     *  called). Call CySysWdtUnlock() to unlock WDT.
1570:Generated_Source\PSoC4/CyLFClk.c ****     *
1571:Generated_Source\PSoC4/CyLFClk.c ****     *******************************************************************************/
1572:Generated_Source\PSoC4/CyLFClk.c ****     static void CySysClkLfclkPosedgeCatch(void)
1573:Generated_Source\PSoC4/CyLFClk.c ****     {
 2197              		.loc 1 1573 0
 2198              		.cfi_startproc
 2199              		@ args = 0, pretend = 0, frame = 8
 2200              		@ frame_needed = 1, uses_anonymous_args = 0
 2201 0000 80B5     		push	{r7, lr}
 2202              		.cfi_def_cfa_offset 8
 2203              		.cfi_offset 7, -8
 2204              		.cfi_offset 14, -4
 2205 0002 82B0     		sub	sp, sp, #8
 2206              		.cfi_def_cfa_offset 16
 2207 0004 00AF     		add	r7, sp, #0
 2208              		.cfi_def_cfa_register 7
1574:Generated_Source\PSoC4/CyLFClk.c ****         uint32 firstCount;
1575:Generated_Source\PSoC4/CyLFClk.c ****         static uint32 lfclkPosedgeEnabledWdtCounter = 0u;
1576:Generated_Source\PSoC4/CyLFClk.c **** 
1577:Generated_Source\PSoC4/CyLFClk.c ****         if (0u != CySysWdtGetEnabledStatus(CY_SYS_WDT_COUNTER0))
 2209              		.loc 1 1577 0
 2210 0006 0020     		movs	r0, #0
 2211 0008 FFF7FEFF 		bl	CySysWdtGetEnabledStatus
 2212 000c 031E     		subs	r3, r0, #0
 2213 000e 03D0     		beq	.L191
1578:Generated_Source\PSoC4/CyLFClk.c ****         {
1579:Generated_Source\PSoC4/CyLFClk.c ****             lfclkPosedgeEnabledWdtCounter = CY_SYS_WDT_COUNTER0;
 2214              		.loc 1 1579 0
 2215 0010 1E4B     		ldr	r3, .L196
 2216 0012 0022     		movs	r2, #0
 2217 0014 1A60     		str	r2, [r3]
 2218 0016 24E0     		b	.L192
 2219              	.L191:
ARM GAS  C:\Users\fabis\AppData\Local\Temp\ccvALjuz.s 			page 68


1580:Generated_Source\PSoC4/CyLFClk.c ****         }
1581:Generated_Source\PSoC4/CyLFClk.c ****         else if (0u != CySysWdtGetEnabledStatus(CY_SYS_WDT_COUNTER1))
 2220              		.loc 1 1581 0
 2221 0018 0120     		movs	r0, #1
 2222 001a FFF7FEFF 		bl	CySysWdtGetEnabledStatus
 2223 001e 031E     		subs	r3, r0, #0
 2224 0020 03D0     		beq	.L193
1582:Generated_Source\PSoC4/CyLFClk.c ****         {
1583:Generated_Source\PSoC4/CyLFClk.c ****             lfclkPosedgeEnabledWdtCounter = CY_SYS_WDT_COUNTER1;
 2225              		.loc 1 1583 0
 2226 0022 1A4B     		ldr	r3, .L196
 2227 0024 0122     		movs	r2, #1
 2228 0026 1A60     		str	r2, [r3]
 2229 0028 1BE0     		b	.L192
 2230              	.L193:
1584:Generated_Source\PSoC4/CyLFClk.c ****         }
1585:Generated_Source\PSoC4/CyLFClk.c ****         else if (0u != CySysWdtGetEnabledStatus(CY_SYS_WDT_COUNTER2))
 2231              		.loc 1 1585 0
 2232 002a 0220     		movs	r0, #2
 2233 002c FFF7FEFF 		bl	CySysWdtGetEnabledStatus
 2234 0030 031E     		subs	r3, r0, #0
 2235 0032 03D0     		beq	.L194
1586:Generated_Source\PSoC4/CyLFClk.c ****         {
1587:Generated_Source\PSoC4/CyLFClk.c ****             lfclkPosedgeEnabledWdtCounter = CY_SYS_WDT_COUNTER2;
 2236              		.loc 1 1587 0
 2237 0034 154B     		ldr	r3, .L196
 2238 0036 0222     		movs	r2, #2
 2239 0038 1A60     		str	r2, [r3]
 2240 003a 12E0     		b	.L192
 2241              	.L194:
1588:Generated_Source\PSoC4/CyLFClk.c ****         }
1589:Generated_Source\PSoC4/CyLFClk.c ****         else /* All WDT counters are disabled */
1590:Generated_Source\PSoC4/CyLFClk.c ****         {
1591:Generated_Source\PSoC4/CyLFClk.c ****             /* Configure WDT counter # 0 */
1592:Generated_Source\PSoC4/CyLFClk.c ****             lfclkPosedgeWdtCounter0Enabled = 1u;
 2242              		.loc 1 1592 0
 2243 003c 144B     		ldr	r3, .L196+4
 2244 003e 0122     		movs	r2, #1
 2245 0040 1A60     		str	r2, [r3]
1593:Generated_Source\PSoC4/CyLFClk.c ****             lfclkPosedgeEnabledWdtCounter = CY_SYS_WDT_COUNTER0;
 2246              		.loc 1 1593 0
 2247 0042 124B     		ldr	r3, .L196
 2248 0044 0022     		movs	r2, #0
 2249 0046 1A60     		str	r2, [r3]
1594:Generated_Source\PSoC4/CyLFClk.c **** 
1595:Generated_Source\PSoC4/CyLFClk.c ****             lfclkPosedgeWdtCounter0Mode = CySysWdtGetMode(CY_SYS_WDT_COUNTER0);
 2250              		.loc 1 1595 0
 2251 0048 0020     		movs	r0, #0
 2252 004a FFF7FEFF 		bl	CySysWdtGetMode
 2253 004e 0200     		movs	r2, r0
 2254 0050 104B     		ldr	r3, .L196+8
 2255 0052 1A60     		str	r2, [r3]
1596:Generated_Source\PSoC4/CyLFClk.c ****             CySysWdtSetMode(CY_SYS_WDT_COUNTER0, CY_SYS_WDT_MODE_NONE);
 2256              		.loc 1 1596 0
 2257 0054 0021     		movs	r1, #0
 2258 0056 0020     		movs	r0, #0
 2259 0058 FFF7FEFF 		bl	CySysWdtSetMode
ARM GAS  C:\Users\fabis\AppData\Local\Temp\ccvALjuz.s 			page 69


1597:Generated_Source\PSoC4/CyLFClk.c ****             CySysWdtEnable(CY_SYS_WDT_COUNTER0_MASK);
 2260              		.loc 1 1597 0
 2261 005c 0120     		movs	r0, #1
 2262 005e FFF7FEFF 		bl	CySysWdtEnable
 2263              	.L192:
1598:Generated_Source\PSoC4/CyLFClk.c ****         }
1599:Generated_Source\PSoC4/CyLFClk.c **** 
1600:Generated_Source\PSoC4/CyLFClk.c ****         firstCount = CySysWdtGetCount(lfclkPosedgeEnabledWdtCounter);
 2264              		.loc 1 1600 0
 2265 0062 0A4B     		ldr	r3, .L196
 2266 0064 1B68     		ldr	r3, [r3]
 2267 0066 1800     		movs	r0, r3
 2268 0068 FFF7FEFF 		bl	CySysWdtGetCount
 2269 006c 0300     		movs	r3, r0
 2270 006e 7B60     		str	r3, [r7, #4]
1601:Generated_Source\PSoC4/CyLFClk.c ****         while (CySysWdtGetCount(lfclkPosedgeEnabledWdtCounter) == firstCount)
 2271              		.loc 1 1601 0
 2272 0070 C046     		nop
 2273              	.L195:
 2274              		.loc 1 1601 0 is_stmt 0 discriminator 1
 2275 0072 064B     		ldr	r3, .L196
 2276 0074 1B68     		ldr	r3, [r3]
 2277 0076 1800     		movs	r0, r3
 2278 0078 FFF7FEFF 		bl	CySysWdtGetCount
 2279 007c 0200     		movs	r2, r0
 2280 007e 7B68     		ldr	r3, [r7, #4]
 2281 0080 9A42     		cmp	r2, r3
 2282 0082 F6D0     		beq	.L195
1602:Generated_Source\PSoC4/CyLFClk.c ****         {
1603:Generated_Source\PSoC4/CyLFClk.c ****             /* Wait for counter to increment */
1604:Generated_Source\PSoC4/CyLFClk.c ****         }
1605:Generated_Source\PSoC4/CyLFClk.c ****     }
 2283              		.loc 1 1605 0 is_stmt 1
 2284 0084 C046     		nop
 2285 0086 BD46     		mov	sp, r7
 2286 0088 02B0     		add	sp, sp, #8
 2287              		@ sp needed
 2288 008a 80BD     		pop	{r7, pc}
 2289              	.L197:
 2290              		.align	2
 2291              	.L196:
 2292 008c 18000000 		.word	lfclkPosedgeEnabledWdtCounter.4960
 2293 0090 00000000 		.word	lfclkPosedgeWdtCounter0Enabled
 2294 0094 04000000 		.word	lfclkPosedgeWdtCounter0Mode
 2295              		.cfi_endproc
 2296              	.LFE31:
 2297              		.size	CySysClkLfclkPosedgeCatch, .-CySysClkLfclkPosedgeCatch
 2298              		.section	.text.CySysClkLfclkPosedgeRestore,"ax",%progbits
 2299              		.align	2
 2300              		.code	16
 2301              		.thumb_func
 2302              		.type	CySysClkLfclkPosedgeRestore, %function
 2303              	CySysClkLfclkPosedgeRestore:
 2304              	.LFB32:
1606:Generated_Source\PSoC4/CyLFClk.c **** 
1607:Generated_Source\PSoC4/CyLFClk.c **** 
1608:Generated_Source\PSoC4/CyLFClk.c ****     /*******************************************************************************
ARM GAS  C:\Users\fabis\AppData\Local\Temp\ccvALjuz.s 			page 70


1609:Generated_Source\PSoC4/CyLFClk.c ****     * Function Name: CySysClkLfclkPosedgeRestore
1610:Generated_Source\PSoC4/CyLFClk.c ****     ********************************************************************************
1611:Generated_Source\PSoC4/CyLFClk.c ****     *
1612:Generated_Source\PSoC4/CyLFClk.c ****     * Summary:
1613:Generated_Source\PSoC4/CyLFClk.c ****     *  Restores the WDT configuration after a CySysClkLfclkPosedgeCatch() call.
1614:Generated_Source\PSoC4/CyLFClk.c ****     *
1615:Generated_Source\PSoC4/CyLFClk.c ****     *  A pair of the CySysClkLfclkPosedgeCatch() and CySysClkLfclkPosedgeRestore()
1616:Generated_Source\PSoC4/CyLFClk.c ****     *  functions is expected to be called inside a critical section.
1617:Generated_Source\PSoC4/CyLFClk.c ****     *
1618:Generated_Source\PSoC4/CyLFClk.c ****     *  Not applicable for the PSoC 4000 devices.
1619:Generated_Source\PSoC4/CyLFClk.c ****     *
1620:Generated_Source\PSoC4/CyLFClk.c ****     * Parameters:
1621:Generated_Source\PSoC4/CyLFClk.c ****     *  None.
1622:Generated_Source\PSoC4/CyLFClk.c ****     *
1623:Generated_Source\PSoC4/CyLFClk.c ****     * Return:
1624:Generated_Source\PSoC4/CyLFClk.c ****     *  None.
1625:Generated_Source\PSoC4/CyLFClk.c ****     *
1626:Generated_Source\PSoC4/CyLFClk.c ****     * Side Effects:
1627:Generated_Source\PSoC4/CyLFClk.c ****     *  This function has no effect if WDT is locked (CySysWdtLock() is
1628:Generated_Source\PSoC4/CyLFClk.c ****     *  called). Call CySysWdtUnlock() to unlock WDT.
1629:Generated_Source\PSoC4/CyLFClk.c ****     *
1630:Generated_Source\PSoC4/CyLFClk.c ****     *******************************************************************************/
1631:Generated_Source\PSoC4/CyLFClk.c ****     static void CySysClkLfclkPosedgeRestore(void)
1632:Generated_Source\PSoC4/CyLFClk.c ****     {
 2305              		.loc 1 1632 0
 2306              		.cfi_startproc
 2307              		@ args = 0, pretend = 0, frame = 0
 2308              		@ frame_needed = 1, uses_anonymous_args = 0
 2309 0000 80B5     		push	{r7, lr}
 2310              		.cfi_def_cfa_offset 8
 2311              		.cfi_offset 7, -8
 2312              		.cfi_offset 14, -4
 2313 0002 00AF     		add	r7, sp, #0
 2314              		.cfi_def_cfa_register 7
1633:Generated_Source\PSoC4/CyLFClk.c ****         if (lfclkPosedgeWdtCounter0Enabled != 0u)
 2315              		.loc 1 1633 0
 2316 0004 0A4B     		ldr	r3, .L201
 2317 0006 1B68     		ldr	r3, [r3]
 2318 0008 002B     		cmp	r3, #0
 2319 000a 0ED0     		beq	.L200
1634:Generated_Source\PSoC4/CyLFClk.c ****         {
1635:Generated_Source\PSoC4/CyLFClk.c ****             /* Restore counter # 0 configuration and force its shutdown */
1636:Generated_Source\PSoC4/CyLFClk.c ****             CY_SYS_WDT_CONTROL_REG &= (uint32)(~CY_SYS_WDT_COUNTER0_MASK);
 2320              		.loc 1 1636 0
 2321 000c 094B     		ldr	r3, .L201+4
 2322 000e 094A     		ldr	r2, .L201+4
 2323 0010 1268     		ldr	r2, [r2]
 2324 0012 0121     		movs	r1, #1
 2325 0014 8A43     		bics	r2, r1
 2326 0016 1A60     		str	r2, [r3]
1637:Generated_Source\PSoC4/CyLFClk.c ****             CySysWdtSetMode(CY_SYS_WDT_COUNTER0, lfclkPosedgeWdtCounter0Mode);
 2327              		.loc 1 1637 0
 2328 0018 074B     		ldr	r3, .L201+8
 2329 001a 1B68     		ldr	r3, [r3]
 2330 001c 1900     		movs	r1, r3
 2331 001e 0020     		movs	r0, #0
 2332 0020 FFF7FEFF 		bl	CySysWdtSetMode
ARM GAS  C:\Users\fabis\AppData\Local\Temp\ccvALjuz.s 			page 71


1638:Generated_Source\PSoC4/CyLFClk.c ****             lfclkPosedgeWdtCounter0Enabled = 0u;
 2333              		.loc 1 1638 0
 2334 0024 024B     		ldr	r3, .L201
 2335 0026 0022     		movs	r2, #0
 2336 0028 1A60     		str	r2, [r3]
 2337              	.L200:
1639:Generated_Source\PSoC4/CyLFClk.c ****         }
1640:Generated_Source\PSoC4/CyLFClk.c ****     }
 2338              		.loc 1 1640 0
 2339 002a C046     		nop
 2340 002c BD46     		mov	sp, r7
 2341              		@ sp needed
 2342 002e 80BD     		pop	{r7, pc}
 2343              	.L202:
 2344              		.align	2
 2345              	.L201:
 2346 0030 00000000 		.word	lfclkPosedgeWdtCounter0Enabled
 2347 0034 10020B40 		.word	1074463248
 2348 0038 04000000 		.word	lfclkPosedgeWdtCounter0Mode
 2349              		.cfi_endproc
 2350              	.LFE32:
 2351              		.size	CySysClkLfclkPosedgeRestore, .-CySysClkLfclkPosedgeRestore
 2352              		.bss
 2353              		.align	2
 2354              	lfclkPosedgeEnabledWdtCounter.4960:
 2355 0018 00000000 		.space	4
 2356              		.text
 2357              	.Letext0:
 2358              		.file 2 "Generated_Source\\PSoC4\\cytypes.h"
 2359              		.file 3 "Generated_Source\\PSoC4\\CyLFClk.h"