ARM GAS  C:\Users\fabis\AppData\Local\Temp\ccmR1bZg.s 			page 1


   1              		.syntax unified
   2              		.cpu cortex-m0
   3              		.fpu softvfp
   4              		.eabi_attribute 20, 1
   5              		.eabi_attribute 21, 1
   6              		.eabi_attribute 23, 3
   7              		.eabi_attribute 24, 1
   8              		.eabi_attribute 25, 1
   9              		.eabi_attribute 26, 1
  10              		.eabi_attribute 30, 6
  11              		.eabi_attribute 34, 0
  12              		.eabi_attribute 18, 4
  13              		.thumb
  14              		.syntax unified
  15              		.file	"InterruptRoutine.c"
  16              		.text
  17              	.Ltext0:
  18              		.cfi_sections	.debug_frame
  19              		.section	.text.GPIO_ISR,"ax",%progbits
  20              		.align	2
  21              		.global	GPIO_ISR
  22              		.code	16
  23              		.thumb_func
  24              		.type	GPIO_ISR, %function
  25              	GPIO_ISR:
  26              	.LFB34:
  27              		.file 1 "InterruptRoutine.c"
   1:InterruptRoutine.c **** /*****************************************************************************
   2:InterruptRoutine.c **** * File Name: InterruptRoutine.c
   3:InterruptRoutine.c **** *
   4:InterruptRoutine.c **** * Version: 1.0
   5:InterruptRoutine.c **** *
   6:InterruptRoutine.c **** * Description:
   7:InterruptRoutine.c **** * The file contains user ISR (as opposed to auto-generated ISRs) for the GPIO 
   8:InterruptRoutine.c **** * interrupt. In the ISR, Logic 0 is written at LED pin (port P0[2]) on the rising  
   9:InterruptRoutine.c **** * edge interrupt and Logic 1 is written on falling edge interrupt. For testing  
  10:InterruptRoutine.c **** * purposes, both the interrupt pins - P0[0] and P0[1] can be shorted externally  
  11:InterruptRoutine.c **** * and driven with the same signal.
  12:InterruptRoutine.c **** *
  13:InterruptRoutine.c **** * Related Document: Code example CE210558
  14:InterruptRoutine.c **** *
  15:InterruptRoutine.c **** * Hardware Dependency: See code example CE210558
  16:InterruptRoutine.c **** *
  17:InterruptRoutine.c **** ******************************************************************************
  18:InterruptRoutine.c **** * Copyright (2015), Cypress Semiconductor Corporation.
  19:InterruptRoutine.c **** ******************************************************************************
  20:InterruptRoutine.c **** * This software is owned by Cypress Semiconductor Corporation (Cypress) and is
  21:InterruptRoutine.c **** * protected by and subject to worldwide patent protection (United States and
  22:InterruptRoutine.c **** * foreign), United States copyright laws and international treaty provisions.
  23:InterruptRoutine.c **** * Cypress hereby grants to licensee a personal, non-exclusive, non-transferable
  24:InterruptRoutine.c **** * license to copy, use, modify, create derivative works of, and compile the
  25:InterruptRoutine.c **** * Cypress Source Code and derivative works for the sole purpose of creating
  26:InterruptRoutine.c **** * custom software in support of licensee product to be used only in conjunction
  27:InterruptRoutine.c **** * with a Cypress integrated circuit as specified in the applicable agreement.
  28:InterruptRoutine.c **** * Any reproduction, modification, translation, compilation, or representation of
  29:InterruptRoutine.c **** * this software except as specified above is prohibited without the express
  30:InterruptRoutine.c **** * written permission of Cypress.
ARM GAS  C:\Users\fabis\AppData\Local\Temp\ccmR1bZg.s 			page 2


  31:InterruptRoutine.c **** *
  32:InterruptRoutine.c **** * Disclaimer: CYPRESS MAKES NO WARRANTY OF ANY KIND, EXPRESS OR IMPLIED, WITH
  33:InterruptRoutine.c **** * REGARD TO THIS MATERIAL, INCLUDING, BUT NOT LIMITED TO, THE IMPLIED
  34:InterruptRoutine.c **** * WARRANTIES OF MERCHANTABILITY AND FITNESS FOR A PARTICULAR PURPOSE.
  35:InterruptRoutine.c **** * Cypress reserves the right to make changes without further notice to the
  36:InterruptRoutine.c **** * materials described herein. Cypress does not assume any liability arising out
  37:InterruptRoutine.c **** * of the application or use of any product or circuit described herein. Cypress
  38:InterruptRoutine.c **** * does not authorize its products for use as critical components in life-support
  39:InterruptRoutine.c **** * systems where a malfunction or failure may reasonably be expected to result in
  40:InterruptRoutine.c **** * significant injury to the user. The inclusion of Cypress' product in a life-
  41:InterruptRoutine.c **** * support systems application implies that the manufacturer assumes all risk of
  42:InterruptRoutine.c **** * such use and in doing so indemnifies Cypress against all charges. Use may be
  43:InterruptRoutine.c **** * limited by and subject to the applicable Cypress software license agreement.
  44:InterruptRoutine.c **** *****************************************************************************/
  45:InterruptRoutine.c **** 
  46:InterruptRoutine.c **** #include "InterruptRoutine.h"
  47:InterruptRoutine.c **** 
  48:InterruptRoutine.c **** CY_ISR(GPIO_ISR)
  49:InterruptRoutine.c **** {
  28              		.loc 1 49 0
  29              		.cfi_startproc
  30              		@ args = 0, pretend = 0, frame = 8
  31              		@ frame_needed = 1, uses_anonymous_args = 0
  32 0000 90B5     		push	{r4, r7, lr}
  33              		.cfi_def_cfa_offset 12
  34              		.cfi_offset 4, -12
  35              		.cfi_offset 7, -8
  36              		.cfi_offset 14, -4
  37 0002 83B0     		sub	sp, sp, #12
  38              		.cfi_def_cfa_offset 24
  39 0004 00AF     		add	r7, sp, #0
  40              		.cfi_def_cfa_register 7
  50:InterruptRoutine.c **** 	/* Read the GPIO interrupt status and clear the interrupt */
  51:InterruptRoutine.c ****     
  52:InterruptRoutine.c ****     uint8 rowsOut = Rows_Read();
  41              		.loc 1 52 0
  42 0006 FC1D     		adds	r4, r7, #7
  43 0008 FFF7FEFF 		bl	Rows_Read
  44 000c 0300     		movs	r3, r0
  45 000e 2370     		strb	r3, [r4]
  53:InterruptRoutine.c ****     uint8 columnsOut = Columns_Read();
  46              		.loc 1 53 0
  47 0010 BC1D     		adds	r4, r7, #6
  48 0012 FFF7FEFF 		bl	Columns_Read
  49 0016 0300     		movs	r3, r0
  50 0018 2370     		strb	r3, [r4]
  54:InterruptRoutine.c ****     
  55:InterruptRoutine.c ****     if ( rowsOut > 0 && columnsOut > 0 )
  51              		.loc 1 55 0
  52 001a FB1D     		adds	r3, r7, #7
  53 001c 1B78     		ldrb	r3, [r3]
  54 001e 002B     		cmp	r3, #0
  55 0020 07D0     		beq	.L2
  56              		.loc 1 55 0 is_stmt 0 discriminator 1
  57 0022 BB1D     		adds	r3, r7, #6
  58 0024 1B78     		ldrb	r3, [r3]
  59 0026 002B     		cmp	r3, #0
ARM GAS  C:\Users\fabis\AppData\Local\Temp\ccmR1bZg.s 			page 3


  60 0028 03D0     		beq	.L2
  56:InterruptRoutine.c ****     {
  57:InterruptRoutine.c ****         Notification_Write(1);
  61              		.loc 1 57 0 is_stmt 1
  62 002a 0120     		movs	r0, #1
  63 002c FFF7FEFF 		bl	Notification_Write
  64 0030 02E0     		b	.L3
  65              	.L2:
  58:InterruptRoutine.c ****     }
  59:InterruptRoutine.c ****     else
  60:InterruptRoutine.c ****     {
  61:InterruptRoutine.c ****         Notification_Write(0);
  66              		.loc 1 61 0
  67 0032 0020     		movs	r0, #0
  68 0034 FFF7FEFF 		bl	Notification_Write
  69              	.L3:
  62:InterruptRoutine.c ****     }
  63:InterruptRoutine.c ****     
  64:InterruptRoutine.c **** 	//uint8 InterruptState = Pins_ClearInterrupt();
  65:InterruptRoutine.c **** 	
  66:InterruptRoutine.c **** 	/* If "ON" pin has triggered interrupt */
  67:InterruptRoutine.c **** 	/*if(InterruptState == ON_PIN)
  68:InterruptRoutine.c **** 	{
  69:InterruptRoutine.c **** 		Turn ON the LED
  70:InterruptRoutine.c **** 		Pin_LED_Write(LED_ON);
  71:InterruptRoutine.c **** 	}
  72:InterruptRoutine.c **** 	else
  73:InterruptRoutine.c **** 	If "OFF" pin has triggered interrupt
  74:InterruptRoutine.c **** 	if(InterruptState == OFF_PIN)
  75:InterruptRoutine.c **** 	{
  76:InterruptRoutine.c **** 		Turn OFF the LED
  77:InterruptRoutine.c **** 		Pin_LED_Write(LED_OFF);
  78:InterruptRoutine.c **** 	}*/
  79:InterruptRoutine.c **** }
  70              		.loc 1 79 0
  71 0038 C046     		nop
  72 003a BD46     		mov	sp, r7
  73 003c 03B0     		add	sp, sp, #12
  74              		@ sp needed
  75 003e 90BD     		pop	{r4, r7, pc}
  76              		.cfi_endproc
  77              	.LFE34:
  78              		.size	GPIO_ISR, .-GPIO_ISR
  79              		.text
  80              	.Letext0:
  81              		.file 2 "Generated_Source\\PSoC4/cytypes.h"