ARM GAS  C:\Users\fabis\AppData\Local\Temp\cc0zH9ct.s 			page 1


   1              		.syntax unified
   2              		.cpu cortex-m0
   3              		.fpu softvfp
   4              		.eabi_attribute 20, 1
   5              		.eabi_attribute 21, 1
   6              		.eabi_attribute 23, 3
   7              		.eabi_attribute 24, 1
   8              		.eabi_attribute 25, 1
   9              		.eabi_attribute 26, 1
  10              		.eabi_attribute 30, 6
  11              		.eabi_attribute 34, 0
  12              		.eabi_attribute 18, 4
  13              		.thumb
  14              		.syntax unified
  15              		.file	"Rows.c"
  16              		.text
  17              	.Ltext0:
  18              		.cfi_sections	.debug_frame
  19              		.section	.text.Rows_SetDriveMode,"ax",%progbits
  20              		.align	2
  21              		.global	Rows_SetDriveMode
  22              		.code	16
  23              		.thumb_func
  24              		.type	Rows_SetDriveMode, %function
  25              	Rows_SetDriveMode:
  26              	.LFB0:
  27              		.file 1 "Generated_Source\\PSoC4\\Rows.c"
   1:Generated_Source\PSoC4/Rows.c **** /*******************************************************************************
   2:Generated_Source\PSoC4/Rows.c **** * File Name: Rows.c  
   3:Generated_Source\PSoC4/Rows.c **** * Version 2.20
   4:Generated_Source\PSoC4/Rows.c **** *
   5:Generated_Source\PSoC4/Rows.c **** * Description:
   6:Generated_Source\PSoC4/Rows.c **** *  This file contains API to enable firmware control of a Pins component.
   7:Generated_Source\PSoC4/Rows.c **** *
   8:Generated_Source\PSoC4/Rows.c **** ********************************************************************************
   9:Generated_Source\PSoC4/Rows.c **** * Copyright 2008-2015, Cypress Semiconductor Corporation.  All rights reserved.
  10:Generated_Source\PSoC4/Rows.c **** * You may use this file only in accordance with the license, terms, conditions, 
  11:Generated_Source\PSoC4/Rows.c **** * disclaimers, and limitations in the end user license agreement accompanying 
  12:Generated_Source\PSoC4/Rows.c **** * the software package with which this file was provided.
  13:Generated_Source\PSoC4/Rows.c **** *******************************************************************************/
  14:Generated_Source\PSoC4/Rows.c **** 
  15:Generated_Source\PSoC4/Rows.c **** #include "cytypes.h"
  16:Generated_Source\PSoC4/Rows.c **** #include "Rows.h"
  17:Generated_Source\PSoC4/Rows.c **** 
  18:Generated_Source\PSoC4/Rows.c **** 
  19:Generated_Source\PSoC4/Rows.c **** #if defined(Rows__PC)
  20:Generated_Source\PSoC4/Rows.c ****     #define Rows_SetP4PinDriveMode(shift, mode)  \
  21:Generated_Source\PSoC4/Rows.c ****     do { \
  22:Generated_Source\PSoC4/Rows.c ****         Rows_PC =   (Rows_PC & \
  23:Generated_Source\PSoC4/Rows.c ****                                 (uint32)(~(uint32)(Rows_DRIVE_MODE_IND_MASK << \
  24:Generated_Source\PSoC4/Rows.c ****                                 (Rows_DRIVE_MODE_BITS * (shift))))) | \
  25:Generated_Source\PSoC4/Rows.c ****                                 (uint32)((uint32)(mode) << \
  26:Generated_Source\PSoC4/Rows.c ****                                 (Rows_DRIVE_MODE_BITS * (shift))); \
  27:Generated_Source\PSoC4/Rows.c ****     } while (0)
  28:Generated_Source\PSoC4/Rows.c **** #else
  29:Generated_Source\PSoC4/Rows.c ****     #if (CY_PSOC4_4200L)
  30:Generated_Source\PSoC4/Rows.c ****         #define Rows_SetP4PinDriveMode(shift, mode)  \
ARM GAS  C:\Users\fabis\AppData\Local\Temp\cc0zH9ct.s 			page 2


  31:Generated_Source\PSoC4/Rows.c ****         do { \
  32:Generated_Source\PSoC4/Rows.c ****             Rows_USBIO_CTRL_REG = (Rows_USBIO_CTRL_REG & \
  33:Generated_Source\PSoC4/Rows.c ****                                     (uint32)(~(uint32)(Rows_DRIVE_MODE_IND_MASK << \
  34:Generated_Source\PSoC4/Rows.c ****                                     (Rows_DRIVE_MODE_BITS * (shift))))) | \
  35:Generated_Source\PSoC4/Rows.c ****                                     (uint32)((uint32)(mode) << \
  36:Generated_Source\PSoC4/Rows.c ****                                     (Rows_DRIVE_MODE_BITS * (shift))); \
  37:Generated_Source\PSoC4/Rows.c ****         } while (0)
  38:Generated_Source\PSoC4/Rows.c ****     #endif
  39:Generated_Source\PSoC4/Rows.c **** #endif
  40:Generated_Source\PSoC4/Rows.c ****   
  41:Generated_Source\PSoC4/Rows.c **** 
  42:Generated_Source\PSoC4/Rows.c **** #if defined(Rows__PC) || (CY_PSOC4_4200L) 
  43:Generated_Source\PSoC4/Rows.c ****     /*******************************************************************************
  44:Generated_Source\PSoC4/Rows.c ****     * Function Name: Rows_SetDriveMode
  45:Generated_Source\PSoC4/Rows.c ****     ****************************************************************************//**
  46:Generated_Source\PSoC4/Rows.c ****     *
  47:Generated_Source\PSoC4/Rows.c ****     * \brief Sets the drive mode for each of the Pins component's pins.
  48:Generated_Source\PSoC4/Rows.c ****     * 
  49:Generated_Source\PSoC4/Rows.c ****     * <b>Note</b> This affects all pins in the Pins component instance. Use the
  50:Generated_Source\PSoC4/Rows.c ****     * Per-Pin APIs if you wish to control individual pin's drive modes.
  51:Generated_Source\PSoC4/Rows.c ****     *
  52:Generated_Source\PSoC4/Rows.c ****     * <b>Note</b> USBIOs have limited drive functionality. Refer to the Drive Mode
  53:Generated_Source\PSoC4/Rows.c ****     * parameter for more information.
  54:Generated_Source\PSoC4/Rows.c ****     *
  55:Generated_Source\PSoC4/Rows.c ****     * \param mode
  56:Generated_Source\PSoC4/Rows.c ****     *  Mode for the selected signals. Valid options are documented in 
  57:Generated_Source\PSoC4/Rows.c ****     *  \ref driveMode.
  58:Generated_Source\PSoC4/Rows.c ****     *
  59:Generated_Source\PSoC4/Rows.c ****     * \return
  60:Generated_Source\PSoC4/Rows.c ****     *  None
  61:Generated_Source\PSoC4/Rows.c ****     *
  62:Generated_Source\PSoC4/Rows.c ****     * \sideeffect
  63:Generated_Source\PSoC4/Rows.c ****     *  If you use read-modify-write operations that are not atomic, the ISR can
  64:Generated_Source\PSoC4/Rows.c ****     *  cause corruption of this function. An ISR that interrupts this function 
  65:Generated_Source\PSoC4/Rows.c ****     *  and performs writes to the Pins component Drive Mode registers can cause 
  66:Generated_Source\PSoC4/Rows.c ****     *  corrupted port data. To avoid this issue, you should either use the Per-Pin
  67:Generated_Source\PSoC4/Rows.c ****     *  APIs (primary method) or disable interrupts around this function.
  68:Generated_Source\PSoC4/Rows.c ****     *
  69:Generated_Source\PSoC4/Rows.c ****     * \funcusage
  70:Generated_Source\PSoC4/Rows.c ****     *  \snippet Rows_SUT.c usage_Rows_SetDriveMode
  71:Generated_Source\PSoC4/Rows.c ****     *******************************************************************************/
  72:Generated_Source\PSoC4/Rows.c ****     void Rows_SetDriveMode(uint8 mode)
  73:Generated_Source\PSoC4/Rows.c ****     {
  28              		.loc 1 73 0
  29              		.cfi_startproc
  30              		@ args = 0, pretend = 0, frame = 8
  31              		@ frame_needed = 1, uses_anonymous_args = 0
  32 0000 80B5     		push	{r7, lr}
  33              		.cfi_def_cfa_offset 8
  34              		.cfi_offset 7, -8
  35              		.cfi_offset 14, -4
  36 0002 82B0     		sub	sp, sp, #8
  37              		.cfi_def_cfa_offset 16
  38 0004 00AF     		add	r7, sp, #0
  39              		.cfi_def_cfa_register 7
  40 0006 0200     		movs	r2, r0
  41 0008 FB1D     		adds	r3, r7, #7
ARM GAS  C:\Users\fabis\AppData\Local\Temp\cc0zH9ct.s 			page 3


  42 000a 1A70     		strb	r2, [r3]
  74:Generated_Source\PSoC4/Rows.c **** 		Rows_SetP4PinDriveMode(Rows__0__SHIFT, mode);
  43              		.loc 1 74 0
  44 000c 164B     		ldr	r3, .L2
  45 000e 164A     		ldr	r2, .L2
  46 0010 1268     		ldr	r2, [r2]
  47 0012 0721     		movs	r1, #7
  48 0014 8A43     		bics	r2, r1
  49 0016 1100     		movs	r1, r2
  50 0018 FA1D     		adds	r2, r7, #7
  51 001a 1278     		ldrb	r2, [r2]
  52 001c 0A43     		orrs	r2, r1
  53 001e 1A60     		str	r2, [r3]
  75:Generated_Source\PSoC4/Rows.c **** 		Rows_SetP4PinDriveMode(Rows__1__SHIFT, mode);
  54              		.loc 1 75 0
  55 0020 114B     		ldr	r3, .L2
  56 0022 114A     		ldr	r2, .L2
  57 0024 1268     		ldr	r2, [r2]
  58 0026 3821     		movs	r1, #56
  59 0028 8A43     		bics	r2, r1
  60 002a 1100     		movs	r1, r2
  61 002c FA1D     		adds	r2, r7, #7
  62 002e 1278     		ldrb	r2, [r2]
  63 0030 D200     		lsls	r2, r2, #3
  64 0032 0A43     		orrs	r2, r1
  65 0034 1A60     		str	r2, [r3]
  76:Generated_Source\PSoC4/Rows.c **** 		Rows_SetP4PinDriveMode(Rows__2__SHIFT, mode);
  66              		.loc 1 76 0
  67 0036 0C4B     		ldr	r3, .L2
  68 0038 0B4A     		ldr	r2, .L2
  69 003a 1268     		ldr	r2, [r2]
  70 003c 0B49     		ldr	r1, .L2+4
  71 003e 1140     		ands	r1, r2
  72 0040 FA1D     		adds	r2, r7, #7
  73 0042 1278     		ldrb	r2, [r2]
  74 0044 9201     		lsls	r2, r2, #6
  75 0046 0A43     		orrs	r2, r1
  76 0048 1A60     		str	r2, [r3]
  77:Generated_Source\PSoC4/Rows.c **** 		Rows_SetP4PinDriveMode(Rows__3__SHIFT, mode);
  77              		.loc 1 77 0
  78 004a 074B     		ldr	r3, .L2
  79 004c 064A     		ldr	r2, .L2
  80 004e 1268     		ldr	r2, [r2]
  81 0050 0749     		ldr	r1, .L2+8
  82 0052 1140     		ands	r1, r2
  83 0054 FA1D     		adds	r2, r7, #7
  84 0056 1278     		ldrb	r2, [r2]
  85 0058 5202     		lsls	r2, r2, #9
  86 005a 0A43     		orrs	r2, r1
  87 005c 1A60     		str	r2, [r3]
  78:Generated_Source\PSoC4/Rows.c ****     }
  88              		.loc 1 78 0
  89 005e C046     		nop
  90 0060 BD46     		mov	sp, r7
  91 0062 02B0     		add	sp, sp, #8
  92              		@ sp needed
  93 0064 80BD     		pop	{r7, pc}
ARM GAS  C:\Users\fabis\AppData\Local\Temp\cc0zH9ct.s 			page 4


  94              	.L3:
  95 0066 C046     		.align	2
  96              	.L2:
  97 0068 08000440 		.word	1074003976
  98 006c 3FFEFFFF 		.word	-449
  99 0070 FFF1FFFF 		.word	-3585
 100              		.cfi_endproc
 101              	.LFE0:
 102              		.size	Rows_SetDriveMode, .-Rows_SetDriveMode
 103              		.section	.text.Rows_Write,"ax",%progbits
 104              		.align	2
 105              		.global	Rows_Write
 106              		.code	16
 107              		.thumb_func
 108              		.type	Rows_Write, %function
 109              	Rows_Write:
 110              	.LFB1:
  79:Generated_Source\PSoC4/Rows.c **** #endif
  80:Generated_Source\PSoC4/Rows.c **** 
  81:Generated_Source\PSoC4/Rows.c **** 
  82:Generated_Source\PSoC4/Rows.c **** /*******************************************************************************
  83:Generated_Source\PSoC4/Rows.c **** * Function Name: Rows_Write
  84:Generated_Source\PSoC4/Rows.c **** ****************************************************************************//**
  85:Generated_Source\PSoC4/Rows.c **** *
  86:Generated_Source\PSoC4/Rows.c **** * \brief Writes the value to the physical port (data output register), masking
  87:Generated_Source\PSoC4/Rows.c **** *  and shifting the bits appropriately. 
  88:Generated_Source\PSoC4/Rows.c **** *
  89:Generated_Source\PSoC4/Rows.c **** * The data output register controls the signal applied to the physical pin in 
  90:Generated_Source\PSoC4/Rows.c **** * conjunction with the drive mode parameter. This function avoids changing 
  91:Generated_Source\PSoC4/Rows.c **** * other bits in the port by using the appropriate method (read-modify-write or
  92:Generated_Source\PSoC4/Rows.c **** * bit banding).
  93:Generated_Source\PSoC4/Rows.c **** *
  94:Generated_Source\PSoC4/Rows.c **** * <b>Note</b> This function should not be used on a hardware digital output pin 
  95:Generated_Source\PSoC4/Rows.c **** * as it is driven by the hardware signal attached to it.
  96:Generated_Source\PSoC4/Rows.c **** *
  97:Generated_Source\PSoC4/Rows.c **** * \param value
  98:Generated_Source\PSoC4/Rows.c **** *  Value to write to the component instance.
  99:Generated_Source\PSoC4/Rows.c **** *
 100:Generated_Source\PSoC4/Rows.c **** * \return 
 101:Generated_Source\PSoC4/Rows.c **** *  None 
 102:Generated_Source\PSoC4/Rows.c **** *
 103:Generated_Source\PSoC4/Rows.c **** * \sideeffect
 104:Generated_Source\PSoC4/Rows.c **** *  If you use read-modify-write operations that are not atomic; the Interrupt 
 105:Generated_Source\PSoC4/Rows.c **** *  Service Routines (ISR) can cause corruption of this function. An ISR that 
 106:Generated_Source\PSoC4/Rows.c **** *  interrupts this function and performs writes to the Pins component data 
 107:Generated_Source\PSoC4/Rows.c **** *  register can cause corrupted port data. To avoid this issue, you should 
 108:Generated_Source\PSoC4/Rows.c **** *  either use the Per-Pin APIs (primary method) or disable interrupts around 
 109:Generated_Source\PSoC4/Rows.c **** *  this function.
 110:Generated_Source\PSoC4/Rows.c **** *
 111:Generated_Source\PSoC4/Rows.c **** * \funcusage
 112:Generated_Source\PSoC4/Rows.c **** *  \snippet Rows_SUT.c usage_Rows_Write
 113:Generated_Source\PSoC4/Rows.c **** *******************************************************************************/
 114:Generated_Source\PSoC4/Rows.c **** void Rows_Write(uint8 value)
 115:Generated_Source\PSoC4/Rows.c **** {
 111              		.loc 1 115 0
 112              		.cfi_startproc
 113              		@ args = 0, pretend = 0, frame = 16
ARM GAS  C:\Users\fabis\AppData\Local\Temp\cc0zH9ct.s 			page 5


 114              		@ frame_needed = 1, uses_anonymous_args = 0
 115 0000 80B5     		push	{r7, lr}
 116              		.cfi_def_cfa_offset 8
 117              		.cfi_offset 7, -8
 118              		.cfi_offset 14, -4
 119 0002 84B0     		sub	sp, sp, #16
 120              		.cfi_def_cfa_offset 24
 121 0004 00AF     		add	r7, sp, #0
 122              		.cfi_def_cfa_register 7
 123 0006 0200     		movs	r2, r0
 124 0008 FB1D     		adds	r3, r7, #7
 125 000a 1A70     		strb	r2, [r3]
 116:Generated_Source\PSoC4/Rows.c ****     uint8 drVal = (uint8)(Rows_DR & (uint8)(~Rows_MASK));
 126              		.loc 1 116 0
 127 000c 0E4B     		ldr	r3, .L5
 128 000e 1B68     		ldr	r3, [r3]
 129 0010 DAB2     		uxtb	r2, r3
 130 0012 0F23     		movs	r3, #15
 131 0014 FB18     		adds	r3, r7, r3
 132 0016 0F21     		movs	r1, #15
 133 0018 8A43     		bics	r2, r1
 134 001a 1A70     		strb	r2, [r3]
 117:Generated_Source\PSoC4/Rows.c ****     drVal = (drVal | ((uint8)(value << Rows_SHIFT) & Rows_MASK));
 135              		.loc 1 117 0
 136 001c FB1D     		adds	r3, r7, #7
 137 001e 1B78     		ldrb	r3, [r3]
 138 0020 0F22     		movs	r2, #15
 139 0022 1340     		ands	r3, r2
 140 0024 D9B2     		uxtb	r1, r3
 141 0026 0F23     		movs	r3, #15
 142 0028 FB18     		adds	r3, r7, r3
 143 002a 0F22     		movs	r2, #15
 144 002c BA18     		adds	r2, r7, r2
 145 002e 1278     		ldrb	r2, [r2]
 146 0030 0A43     		orrs	r2, r1
 147 0032 1A70     		strb	r2, [r3]
 118:Generated_Source\PSoC4/Rows.c ****     Rows_DR = (uint32)drVal;
 148              		.loc 1 118 0
 149 0034 044B     		ldr	r3, .L5
 150 0036 0F22     		movs	r2, #15
 151 0038 BA18     		adds	r2, r7, r2
 152 003a 1278     		ldrb	r2, [r2]
 153 003c 1A60     		str	r2, [r3]
 119:Generated_Source\PSoC4/Rows.c **** }
 154              		.loc 1 119 0
 155 003e C046     		nop
 156 0040 BD46     		mov	sp, r7
 157 0042 04B0     		add	sp, sp, #16
 158              		@ sp needed
 159 0044 80BD     		pop	{r7, pc}
 160              	.L6:
 161 0046 C046     		.align	2
 162              	.L5:
 163 0048 00000440 		.word	1074003968
 164              		.cfi_endproc
 165              	.LFE1:
 166              		.size	Rows_Write, .-Rows_Write
ARM GAS  C:\Users\fabis\AppData\Local\Temp\cc0zH9ct.s 			page 6


 167              		.section	.text.Rows_Read,"ax",%progbits
 168              		.align	2
 169              		.global	Rows_Read
 170              		.code	16
 171              		.thumb_func
 172              		.type	Rows_Read, %function
 173              	Rows_Read:
 174              	.LFB2:
 120:Generated_Source\PSoC4/Rows.c **** 
 121:Generated_Source\PSoC4/Rows.c **** 
 122:Generated_Source\PSoC4/Rows.c **** /*******************************************************************************
 123:Generated_Source\PSoC4/Rows.c **** * Function Name: Rows_Read
 124:Generated_Source\PSoC4/Rows.c **** ****************************************************************************//**
 125:Generated_Source\PSoC4/Rows.c **** *
 126:Generated_Source\PSoC4/Rows.c **** * \brief Reads the associated physical port (pin status register) and masks 
 127:Generated_Source\PSoC4/Rows.c **** *  the required bits according to the width and bit position of the component
 128:Generated_Source\PSoC4/Rows.c **** *  instance. 
 129:Generated_Source\PSoC4/Rows.c **** *
 130:Generated_Source\PSoC4/Rows.c **** * The pin's status register returns the current logic level present on the 
 131:Generated_Source\PSoC4/Rows.c **** * physical pin.
 132:Generated_Source\PSoC4/Rows.c **** *
 133:Generated_Source\PSoC4/Rows.c **** * \return 
 134:Generated_Source\PSoC4/Rows.c **** *  The current value for the pins in the component as a right justified number.
 135:Generated_Source\PSoC4/Rows.c **** *
 136:Generated_Source\PSoC4/Rows.c **** * \funcusage
 137:Generated_Source\PSoC4/Rows.c **** *  \snippet Rows_SUT.c usage_Rows_Read  
 138:Generated_Source\PSoC4/Rows.c **** *******************************************************************************/
 139:Generated_Source\PSoC4/Rows.c **** uint8 Rows_Read(void)
 140:Generated_Source\PSoC4/Rows.c **** {
 175              		.loc 1 140 0
 176              		.cfi_startproc
 177              		@ args = 0, pretend = 0, frame = 0
 178              		@ frame_needed = 1, uses_anonymous_args = 0
 179 0000 80B5     		push	{r7, lr}
 180              		.cfi_def_cfa_offset 8
 181              		.cfi_offset 7, -8
 182              		.cfi_offset 14, -4
 183 0002 00AF     		add	r7, sp, #0
 184              		.cfi_def_cfa_register 7
 141:Generated_Source\PSoC4/Rows.c ****     return (uint8)((Rows_PS & Rows_MASK) >> Rows_SHIFT);
 185              		.loc 1 141 0
 186 0004 044B     		ldr	r3, .L9
 187 0006 1B68     		ldr	r3, [r3]
 188 0008 DBB2     		uxtb	r3, r3
 189 000a 0F22     		movs	r2, #15
 190 000c 1340     		ands	r3, r2
 191 000e DBB2     		uxtb	r3, r3
 142:Generated_Source\PSoC4/Rows.c **** }
 192              		.loc 1 142 0
 193 0010 1800     		movs	r0, r3
 194 0012 BD46     		mov	sp, r7
 195              		@ sp needed
 196 0014 80BD     		pop	{r7, pc}
 197              	.L10:
 198 0016 C046     		.align	2
 199              	.L9:
 200 0018 04000440 		.word	1074003972
ARM GAS  C:\Users\fabis\AppData\Local\Temp\cc0zH9ct.s 			page 7


 201              		.cfi_endproc
 202              	.LFE2:
 203              		.size	Rows_Read, .-Rows_Read
 204              		.section	.text.Rows_ReadDataReg,"ax",%progbits
 205              		.align	2
 206              		.global	Rows_ReadDataReg
 207              		.code	16
 208              		.thumb_func
 209              		.type	Rows_ReadDataReg, %function
 210              	Rows_ReadDataReg:
 211              	.LFB3:
 143:Generated_Source\PSoC4/Rows.c **** 
 144:Generated_Source\PSoC4/Rows.c **** 
 145:Generated_Source\PSoC4/Rows.c **** /*******************************************************************************
 146:Generated_Source\PSoC4/Rows.c **** * Function Name: Rows_ReadDataReg
 147:Generated_Source\PSoC4/Rows.c **** ****************************************************************************//**
 148:Generated_Source\PSoC4/Rows.c **** *
 149:Generated_Source\PSoC4/Rows.c **** * \brief Reads the associated physical port's data output register and masks 
 150:Generated_Source\PSoC4/Rows.c **** *  the correct bits according to the width and bit position of the component 
 151:Generated_Source\PSoC4/Rows.c **** *  instance. 
 152:Generated_Source\PSoC4/Rows.c **** *
 153:Generated_Source\PSoC4/Rows.c **** * The data output register controls the signal applied to the physical pin in 
 154:Generated_Source\PSoC4/Rows.c **** * conjunction with the drive mode parameter. This is not the same as the 
 155:Generated_Source\PSoC4/Rows.c **** * preferred Rows_Read() API because the 
 156:Generated_Source\PSoC4/Rows.c **** * Rows_ReadDataReg() reads the data register instead of the status 
 157:Generated_Source\PSoC4/Rows.c **** * register. For output pins this is a useful function to determine the value 
 158:Generated_Source\PSoC4/Rows.c **** * just written to the pin.
 159:Generated_Source\PSoC4/Rows.c **** *
 160:Generated_Source\PSoC4/Rows.c **** * \return 
 161:Generated_Source\PSoC4/Rows.c **** *  The current value of the data register masked and shifted into a right 
 162:Generated_Source\PSoC4/Rows.c **** *  justified number for the component instance.
 163:Generated_Source\PSoC4/Rows.c **** *
 164:Generated_Source\PSoC4/Rows.c **** * \funcusage
 165:Generated_Source\PSoC4/Rows.c **** *  \snippet Rows_SUT.c usage_Rows_ReadDataReg 
 166:Generated_Source\PSoC4/Rows.c **** *******************************************************************************/
 167:Generated_Source\PSoC4/Rows.c **** uint8 Rows_ReadDataReg(void)
 168:Generated_Source\PSoC4/Rows.c **** {
 212              		.loc 1 168 0
 213              		.cfi_startproc
 214              		@ args = 0, pretend = 0, frame = 0
 215              		@ frame_needed = 1, uses_anonymous_args = 0
 216 0000 80B5     		push	{r7, lr}
 217              		.cfi_def_cfa_offset 8
 218              		.cfi_offset 7, -8
 219              		.cfi_offset 14, -4
 220 0002 00AF     		add	r7, sp, #0
 221              		.cfi_def_cfa_register 7
 169:Generated_Source\PSoC4/Rows.c ****     return (uint8)((Rows_DR & Rows_MASK) >> Rows_SHIFT);
 222              		.loc 1 169 0
 223 0004 044B     		ldr	r3, .L13
 224 0006 1B68     		ldr	r3, [r3]
 225 0008 DBB2     		uxtb	r3, r3
 226 000a 0F22     		movs	r2, #15
 227 000c 1340     		ands	r3, r2
 228 000e DBB2     		uxtb	r3, r3
 170:Generated_Source\PSoC4/Rows.c **** }
 229              		.loc 1 170 0
ARM GAS  C:\Users\fabis\AppData\Local\Temp\cc0zH9ct.s 			page 8


 230 0010 1800     		movs	r0, r3
 231 0012 BD46     		mov	sp, r7
 232              		@ sp needed
 233 0014 80BD     		pop	{r7, pc}
 234              	.L14:
 235 0016 C046     		.align	2
 236              	.L13:
 237 0018 00000440 		.word	1074003968
 238              		.cfi_endproc
 239              	.LFE3:
 240              		.size	Rows_ReadDataReg, .-Rows_ReadDataReg
 241              		.section	.text.Rows_SetInterruptMode,"ax",%progbits
 242              		.align	2
 243              		.global	Rows_SetInterruptMode
 244              		.code	16
 245              		.thumb_func
 246              		.type	Rows_SetInterruptMode, %function
 247              	Rows_SetInterruptMode:
 248              	.LFB4:
 171:Generated_Source\PSoC4/Rows.c **** 
 172:Generated_Source\PSoC4/Rows.c **** 
 173:Generated_Source\PSoC4/Rows.c **** /*******************************************************************************
 174:Generated_Source\PSoC4/Rows.c **** * Function Name: Rows_SetInterruptMode
 175:Generated_Source\PSoC4/Rows.c **** ****************************************************************************//**
 176:Generated_Source\PSoC4/Rows.c **** *
 177:Generated_Source\PSoC4/Rows.c **** * \brief Configures the interrupt mode for each of the Pins component's
 178:Generated_Source\PSoC4/Rows.c **** *  pins. Alternatively you may set the interrupt mode for all the pins
 179:Generated_Source\PSoC4/Rows.c **** *  specified in the Pins component.
 180:Generated_Source\PSoC4/Rows.c **** *
 181:Generated_Source\PSoC4/Rows.c **** *  <b>Note</b> The interrupt is port-wide and therefore any enabled pin
 182:Generated_Source\PSoC4/Rows.c **** *  interrupt may trigger it.
 183:Generated_Source\PSoC4/Rows.c **** *
 184:Generated_Source\PSoC4/Rows.c **** * \param position
 185:Generated_Source\PSoC4/Rows.c **** *  The pin position as listed in the Pins component. You may OR these to be 
 186:Generated_Source\PSoC4/Rows.c **** *  able to configure the interrupt mode of multiple pins within a Pins 
 187:Generated_Source\PSoC4/Rows.c **** *  component. Or you may use Rows_INTR_ALL to configure the
 188:Generated_Source\PSoC4/Rows.c **** *  interrupt mode of all the pins in the Pins component.       
 189:Generated_Source\PSoC4/Rows.c **** *  - Rows_0_INTR       (First pin in the list)
 190:Generated_Source\PSoC4/Rows.c **** *  - Rows_1_INTR       (Second pin in the list)
 191:Generated_Source\PSoC4/Rows.c **** *  - ...
 192:Generated_Source\PSoC4/Rows.c **** *  - Rows_INTR_ALL     (All pins in Pins component)
 193:Generated_Source\PSoC4/Rows.c **** *
 194:Generated_Source\PSoC4/Rows.c **** * \param mode
 195:Generated_Source\PSoC4/Rows.c **** *  Interrupt mode for the selected pins. Valid options are documented in
 196:Generated_Source\PSoC4/Rows.c **** *  \ref intrMode.
 197:Generated_Source\PSoC4/Rows.c **** *
 198:Generated_Source\PSoC4/Rows.c **** * \return 
 199:Generated_Source\PSoC4/Rows.c **** *  None
 200:Generated_Source\PSoC4/Rows.c **** *  
 201:Generated_Source\PSoC4/Rows.c **** * \sideeffect
 202:Generated_Source\PSoC4/Rows.c **** *  It is recommended that the interrupt be disabled before calling this 
 203:Generated_Source\PSoC4/Rows.c **** *  function to avoid unintended interrupt requests. Note that the interrupt
 204:Generated_Source\PSoC4/Rows.c **** *  type is port wide, and therefore will trigger for any enabled pin on the 
 205:Generated_Source\PSoC4/Rows.c **** *  port.
 206:Generated_Source\PSoC4/Rows.c **** *
 207:Generated_Source\PSoC4/Rows.c **** * \funcusage
 208:Generated_Source\PSoC4/Rows.c **** *  \snippet Rows_SUT.c usage_Rows_SetInterruptMode
ARM GAS  C:\Users\fabis\AppData\Local\Temp\cc0zH9ct.s 			page 9


 209:Generated_Source\PSoC4/Rows.c **** *******************************************************************************/
 210:Generated_Source\PSoC4/Rows.c **** void Rows_SetInterruptMode(uint16 position, uint16 mode)
 211:Generated_Source\PSoC4/Rows.c **** {
 249              		.loc 1 211 0
 250              		.cfi_startproc
 251              		@ args = 0, pretend = 0, frame = 16
 252              		@ frame_needed = 1, uses_anonymous_args = 0
 253 0000 80B5     		push	{r7, lr}
 254              		.cfi_def_cfa_offset 8
 255              		.cfi_offset 7, -8
 256              		.cfi_offset 14, -4
 257 0002 84B0     		sub	sp, sp, #16
 258              		.cfi_def_cfa_offset 24
 259 0004 00AF     		add	r7, sp, #0
 260              		.cfi_def_cfa_register 7
 261 0006 0200     		movs	r2, r0
 262 0008 BB1D     		adds	r3, r7, #6
 263 000a 1A80     		strh	r2, [r3]
 264 000c 3B1D     		adds	r3, r7, #4
 265 000e 0A1C     		adds	r2, r1, #0
 266 0010 1A80     		strh	r2, [r3]
 212:Generated_Source\PSoC4/Rows.c ****     uint32 intrCfg;
 213:Generated_Source\PSoC4/Rows.c ****     
 214:Generated_Source\PSoC4/Rows.c ****     intrCfg =  Rows_INTCFG & (uint32)(~(uint32)position);
 267              		.loc 1 214 0
 268 0012 0B4B     		ldr	r3, .L16
 269 0014 1B68     		ldr	r3, [r3]
 270 0016 BA1D     		adds	r2, r7, #6
 271 0018 1288     		ldrh	r2, [r2]
 272 001a D243     		mvns	r2, r2
 273 001c 1340     		ands	r3, r2
 274 001e FB60     		str	r3, [r7, #12]
 215:Generated_Source\PSoC4/Rows.c ****     Rows_INTCFG = intrCfg | ((uint32)position & (uint32)mode);
 275              		.loc 1 215 0
 276 0020 074B     		ldr	r3, .L16
 277 0022 BA1D     		adds	r2, r7, #6
 278 0024 391D     		adds	r1, r7, #4
 279 0026 1288     		ldrh	r2, [r2]
 280 0028 0988     		ldrh	r1, [r1]
 281 002a 0A40     		ands	r2, r1
 282 002c 92B2     		uxth	r2, r2
 283 002e 1100     		movs	r1, r2
 284 0030 FA68     		ldr	r2, [r7, #12]
 285 0032 0A43     		orrs	r2, r1
 286 0034 1A60     		str	r2, [r3]
 216:Generated_Source\PSoC4/Rows.c **** }
 287              		.loc 1 216 0
 288 0036 C046     		nop
 289 0038 BD46     		mov	sp, r7
 290 003a 04B0     		add	sp, sp, #16
 291              		@ sp needed
 292 003c 80BD     		pop	{r7, pc}
 293              	.L17:
 294 003e C046     		.align	2
 295              	.L16:
 296 0040 0C000440 		.word	1074003980
 297              		.cfi_endproc
ARM GAS  C:\Users\fabis\AppData\Local\Temp\cc0zH9ct.s 			page 10


 298              	.LFE4:
 299              		.size	Rows_SetInterruptMode, .-Rows_SetInterruptMode
 300              		.section	.text.Rows_ClearInterrupt,"ax",%progbits
 301              		.align	2
 302              		.global	Rows_ClearInterrupt
 303              		.code	16
 304              		.thumb_func
 305              		.type	Rows_ClearInterrupt, %function
 306              	Rows_ClearInterrupt:
 307              	.LFB5:
 217:Generated_Source\PSoC4/Rows.c **** 
 218:Generated_Source\PSoC4/Rows.c **** 
 219:Generated_Source\PSoC4/Rows.c **** /*******************************************************************************
 220:Generated_Source\PSoC4/Rows.c **** * Function Name: Rows_ClearInterrupt
 221:Generated_Source\PSoC4/Rows.c **** ****************************************************************************//**
 222:Generated_Source\PSoC4/Rows.c **** *
 223:Generated_Source\PSoC4/Rows.c **** * \brief Clears any active interrupts attached with the component and returns 
 224:Generated_Source\PSoC4/Rows.c **** *  the value of the interrupt status register allowing determination of which
 225:Generated_Source\PSoC4/Rows.c **** *  pins generated an interrupt event.
 226:Generated_Source\PSoC4/Rows.c **** *
 227:Generated_Source\PSoC4/Rows.c **** * \return 
 228:Generated_Source\PSoC4/Rows.c **** *  The right-shifted current value of the interrupt status register. Each pin 
 229:Generated_Source\PSoC4/Rows.c **** *  has one bit set if it generated an interrupt event. For example, bit 0 is 
 230:Generated_Source\PSoC4/Rows.c **** *  for pin 0 and bit 1 is for pin 1 of the Pins component.
 231:Generated_Source\PSoC4/Rows.c **** *  
 232:Generated_Source\PSoC4/Rows.c **** * \sideeffect
 233:Generated_Source\PSoC4/Rows.c **** *  Clears all bits of the physical port's interrupt status register, not just
 234:Generated_Source\PSoC4/Rows.c **** *  those associated with the Pins component.
 235:Generated_Source\PSoC4/Rows.c **** *
 236:Generated_Source\PSoC4/Rows.c **** * \funcusage
 237:Generated_Source\PSoC4/Rows.c **** *  \snippet Rows_SUT.c usage_Rows_ClearInterrupt
 238:Generated_Source\PSoC4/Rows.c **** *******************************************************************************/
 239:Generated_Source\PSoC4/Rows.c **** uint8 Rows_ClearInterrupt(void)
 240:Generated_Source\PSoC4/Rows.c **** {
 308              		.loc 1 240 0
 309              		.cfi_startproc
 310              		@ args = 0, pretend = 0, frame = 8
 311              		@ frame_needed = 1, uses_anonymous_args = 0
 312 0000 80B5     		push	{r7, lr}
 313              		.cfi_def_cfa_offset 8
 314              		.cfi_offset 7, -8
 315              		.cfi_offset 14, -4
 316 0002 82B0     		sub	sp, sp, #8
 317              		.cfi_def_cfa_offset 16
 318 0004 00AF     		add	r7, sp, #0
 319              		.cfi_def_cfa_register 7
 241:Generated_Source\PSoC4/Rows.c **** 	uint8 maskedStatus = (uint8)(Rows_INTSTAT & Rows_MASK);
 320              		.loc 1 241 0
 321 0006 084B     		ldr	r3, .L20
 322 0008 1B68     		ldr	r3, [r3]
 323 000a DAB2     		uxtb	r2, r3
 324 000c FB1D     		adds	r3, r7, #7
 325 000e 0F21     		movs	r1, #15
 326 0010 0A40     		ands	r2, r1
 327 0012 1A70     		strb	r2, [r3]
 242:Generated_Source\PSoC4/Rows.c **** 	Rows_INTSTAT = maskedStatus;
 328              		.loc 1 242 0
ARM GAS  C:\Users\fabis\AppData\Local\Temp\cc0zH9ct.s 			page 11


 329 0014 044B     		ldr	r3, .L20
 330 0016 FA1D     		adds	r2, r7, #7
 331 0018 1278     		ldrb	r2, [r2]
 332 001a 1A60     		str	r2, [r3]
 243:Generated_Source\PSoC4/Rows.c ****     return maskedStatus >> Rows_SHIFT;
 333              		.loc 1 243 0
 334 001c FB1D     		adds	r3, r7, #7
 335 001e 1B78     		ldrb	r3, [r3]
 244:Generated_Source\PSoC4/Rows.c **** }
 336              		.loc 1 244 0
 337 0020 1800     		movs	r0, r3
 338 0022 BD46     		mov	sp, r7
 339 0024 02B0     		add	sp, sp, #8
 340              		@ sp needed
 341 0026 80BD     		pop	{r7, pc}
 342              	.L21:
 343              		.align	2
 344              	.L20:
 345 0028 10000440 		.word	1074003984
 346              		.cfi_endproc
 347              	.LFE5:
 348              		.size	Rows_ClearInterrupt, .-Rows_ClearInterrupt
 349              		.text
 350              	.Letext0:
 351              		.file 2 "Generated_Source\\PSoC4\\cytypes.h"